	.file	"sign.c"
	.option nopic
	.attribute arch, "rv32i2p0_m2p0_a2p0_c2p0"
	.attribute unaligned_access, 0
	.attribute stack_align, 16
	.text
.Ltext0:
	.cfi_sections	.debug_frame
	.align	1
	.globl	pqcrystals_dilithium2_ref_keypair
	.type	pqcrystals_dilithium2_ref_keypair, @function
pqcrystals_dilithium2_ref_keypair:
.LFB0:
	.file 1 "test_demo/sign.c"
	.loc 1 23 65
	.cfi_startproc
	addi	sp,sp,-240
	.cfi_def_cfa_offset 240
	sw	ra,236(sp)
	sw	s0,232(sp)
	li	t1,-36864
	add	sp,sp,t1
	.cfi_def_cfa_offset 37104
	.cfi_offset 1, -4
	.cfi_offset 8, -8
	li	a5,-36864
	li	s0,36864
	addi	a4,s0,224
	add	a4,a4,sp
	add	a5,a4,a5
	sw	a0,-212(a5)
	li	a5,-36864
	addi	a4,s0,224
	add	a4,a4,sp
	add	a5,a4,a5
	sw	a1,-216(a5)
	.loc 1 34 3
	addi	a5,s0,84
	add	a5,sp,a5
	li	a1,32
	mv	a0,a5
	call	randombytes
	.loc 1 35 18
	li	a5,4
	addi	a4,s0,116
	add	a4,a4,sp
	sb	a5,0(a4)
	.loc 1 36 18
	li	a5,4
	addi	a4,s0,117
	add	a4,a4,sp
	sb	a5,0(a4)
	.loc 1 38 3
	addi	a5,s0,84
	add	a4,sp,a5
	addi	a5,s0,84
	add	a5,sp,a5
	li	a3,34
	mv	a2,a4
	li	a1,128
	mv	a0,a5
	call	pqcrystals_dilithium_fips202_ref_shake256
	.loc 1 39 7
	addi	a5,s0,84
	add	a5,sp,a5
	addi	a4,s0,220
	add	a4,a4,sp
	sw	a5,0(a4)
	.loc 1 40 12
	addi	a5,s0,220
	add	a5,a5,sp
	lw	a5,0(a5)
	addi	a5,a5,32
	addi	a4,s0,216
	add	a4,a4,sp
	sw	a5,0(a4)
	.loc 1 41 7
	addi	a5,s0,216
	add	a5,a5,sp
	lw	a5,0(a5)
	addi	a5,a5,64
	addi	a4,s0,212
	add	a4,a4,sp
	sw	a5,0(a4)
	.loc 1 44 3
	li	a5,-16384
	addi	a5,a5,-204
	addi	a4,s0,224
	add	a4,a4,sp
	add	a5,a4,a5
	addi	a4,s0,220
	add	a4,a4,sp
	lw	a1,0(a4)
	mv	a0,a5
	call	pqcrystals_dilithium2_ref_polyvec_matrix_expand
	.loc 1 48 3
	li	a5,-20480
	addi	a5,a5,-204
	addi	a4,s0,224
	add	a4,a4,sp
	add	a5,a4,a5
	li	a2,0
	addi	a4,s0,216
	add	a4,a4,sp
	lw	a1,0(a4)
	mv	a0,a5
	call	pqcrystals_dilithium2_ref_polyvecl_uniform_eta
	.loc 1 49 3
	li	a5,-28672
	addi	a5,a5,-204
	addi	a4,s0,224
	add	a4,a4,sp
	add	a5,a4,a5
	li	a2,4
	addi	a4,s0,216
	add	a4,a4,sp
	lw	a1,0(a4)
	mv	a0,a5
	call	pqcrystals_dilithium2_ref_polyveck_uniform_eta
	.loc 1 52 9
	li	a5,-24576
	addi	a4,s0,224
	add	a4,a4,sp
	add	a4,a4,a5
	li	a5,-20480
	addi	a3,s0,224
	add	a3,a3,sp
	add	a5,a3,a5
	addi	a4,a4,-204
	addi	a5,a5,-204
	li	a3,4096
	mv	a2,a3
	mv	a1,a5
	mv	a0,a4
	call	memcpy
	.loc 1 53 3
	li	a5,-24576
	addi	a5,a5,-204
	addi	a4,s0,224
	add	a4,a4,sp
	add	a5,a4,a5
	mv	a0,a5
	call	pqcrystals_dilithium2_ref_polyvecl_ntt
	.loc 1 54 3
	li	a5,-24576
	addi	a5,a5,-204
	addi	a4,s0,224
	add	a4,a4,sp
	add	a3,a4,a5
	li	a5,-16384
	addi	a5,a5,-204
	addi	a4,s0,224
	add	a4,a4,sp
	add	a4,a4,a5
	li	a5,-32768
	addi	a5,a5,-204
	addi	a2,s0,224
	add	a2,a2,sp
	add	a5,a2,a5
	mv	a2,a3
	mv	a1,a4
	mv	a0,a5
	call	pqcrystals_dilithium2_ref_polyvec_matrix_pointwise_montgomery
	.loc 1 55 3
	li	a5,-32768
	addi	a5,a5,-204
	addi	a4,s0,224
	add	a4,a4,sp
	add	a5,a4,a5
	mv	a0,a5
	call	pqcrystals_dilithium2_ref_polyveck_reduce
	.loc 1 56 3
	li	a5,-32768
	addi	a5,a5,-204
	addi	a4,s0,224
	add	a4,a4,sp
	add	a5,a4,a5
	mv	a0,a5
	call	pqcrystals_dilithium2_ref_polyveck_invntt_tomont
	.loc 1 59 3
	li	a5,-28672
	addi	a5,a5,-204
	addi	a4,s0,224
	add	a4,a4,sp
	add	a3,a4,a5
	li	a5,-32768
	addi	a5,a5,-204
	addi	a4,s0,224
	add	a4,a4,sp
	add	a4,a4,a5
	li	a5,-32768
	addi	a5,a5,-204
	addi	a2,s0,224
	add	a2,a2,sp
	add	a5,a2,a5
	mv	a2,a3
	mv	a1,a4
	mv	a0,a5
	call	pqcrystals_dilithium2_ref_polyveck_add
	.loc 1 62 3
	li	a5,-32768
	addi	a5,a5,-204
	addi	a4,s0,224
	add	a4,a4,sp
	add	a5,a4,a5
	mv	a0,a5
	call	pqcrystals_dilithium2_ref_polyveck_caddq
	.loc 1 63 3
	li	a5,-32768
	addi	a5,a5,-204
	addi	a4,s0,224
	add	a4,a4,sp
	add	a3,a4,a5
	li	a5,-36864
	addi	a5,a5,-204
	addi	a4,s0,224
	add	a4,a4,sp
	add	a4,a4,a5
	li	a5,-32768
	addi	a5,a5,-204
	addi	a2,s0,224
	add	a2,a2,sp
	add	a5,a2,a5
	mv	a2,a3
	mv	a1,a4
	mv	a0,a5
	call	pqcrystals_dilithium2_ref_polyveck_power2round
	.loc 1 64 3
	li	a5,-32768
	addi	a5,a5,-204
	addi	a4,s0,224
	add	a4,a4,sp
	add	a4,a4,a5
	li	a5,-36864
	addi	a3,s0,224
	add	a3,a3,sp
	add	a5,a3,a5
	mv	a2,a4
	addi	a4,s0,220
	add	a4,a4,sp
	lw	a1,0(a4)
	lw	a0,-212(a5)
	call	pqcrystals_dilithium2_ref_pack_pk
	.loc 1 67 3
	li	a5,-36864
	addi	a4,s0,224
	add	a4,a4,sp
	add	a5,a4,a5
	addi	a4,s0,20
	add	a4,sp,a4
	li	a3,1312
	lw	a2,-212(a5)
	li	a1,64
	mv	a0,a4
	call	pqcrystals_dilithium_fips202_ref_shake256
	.loc 1 68 3
	li	a5,-28672
	addi	a5,a5,-204
	addi	a4,s0,224
	add	a4,a4,sp
	add	a1,a4,a5
	li	a5,-20480
	addi	a5,a5,-204
	addi	a4,s0,224
	add	a4,a4,sp
	add	a3,a4,a5
	li	a5,-36864
	addi	a5,a5,-204
	addi	a4,s0,224
	add	a4,a4,sp
	add	a4,a4,a5
	addi	a5,s0,20
	add	a2,sp,a5
	li	a5,-36864
	addi	a0,s0,224
	add	a0,a0,sp
	add	a0,a0,a5
	mv	a6,a1
	mv	a5,a3
	addi	a3,s0,212
	add	a3,a3,sp
	lw	a3,0(a3)
	addi	a1,s0,220
	add	a1,a1,sp
	lw	a1,0(a1)
	lw	a0,-216(a0)
	call	pqcrystals_dilithium2_ref_pack_sk
	.loc 1 70 10
	li	a5,0
	.loc 1 71 1
	mv	a0,a5
	li	t1,36864
	add	sp,sp,t1
	.cfi_def_cfa_offset 240
	lw	ra,236(sp)
	.cfi_restore 1
	lw	s0,232(sp)
	.cfi_restore 8
	addi	sp,sp,240
	.cfi_def_cfa_offset 0
	jr	ra
	.cfi_endproc
.LFE0:
	.size	pqcrystals_dilithium2_ref_keypair, .-pqcrystals_dilithium2_ref_keypair
	.align	1
	.globl	pqcrystals_dilithium2_ref_signature_internal
	.type	pqcrystals_dilithium2_ref_signature_internal, @function
pqcrystals_dilithium2_ref_signature_internal:
.LFB1:
	.loc 1 97 1
	.cfi_startproc
	addi	sp,sp,-1568
	.cfi_def_cfa_offset 1568
	sw	ra,1564(sp)
	sw	s0,1560(sp)
	li	t1,-49152
	add	sp,sp,t1
	.cfi_def_cfa_offset 50720
	.cfi_offset 1, -4
	.cfi_offset 8, -8
	li	t1,-49152
	li	s0,49152
	addi	t3,s0,1552
	add	t3,t3,sp
	add	t1,t3,t1
	sw	a0,-1524(t1)
	li	a0,-49152
	addi	t1,s0,1552
	add	t1,t1,sp
	add	a0,t1,a0
	sw	a1,-1528(a0)
	li	a1,-49152
	mv	a0,s0
	addi	s0,a0,1552
	add	s0,s0,sp
	add	a1,s0,a1
	sw	a2,-1532(a1)
	li	a2,-49152
	mv	a1,a0
	addi	a0,a1,1552
	add	a0,a0,sp
	add	a2,a0,a2
	sw	a3,-1536(a2)
	li	a3,-49152
	mv	a2,a1
	addi	a1,a2,1552
	add	a1,a1,sp
	add	a3,a1,a3
	sw	a4,-1540(a3)
	li	a4,-49152
	mv	a3,a2
	addi	a2,a3,1552
	add	a2,a2,sp
	add	a4,a2,a4
	sw	a5,-1544(a4)
	li	a5,-49152
	mv	a4,a3
	addi	a3,a4,1552
	add	a3,a3,sp
	add	a5,a3,a5
	sw	a6,-1548(a5)
	li	a5,-49152
	addi	a3,a4,1552
	add	a3,a3,sp
	add	a5,a3,a5
	sw	a7,-1552(a5)
	.loc 1 101 12
	addi	a5,a4,1550
	add	a5,a5,sp
	sh	zero,0(a5)
	.loc 1 107 7
	mv	a3,a4
	addi	a5,a4,1268
	add	a5,sp,a5
	addi	a4,a3,1544
	add	a4,a4,sp
	sw	a5,0(a4)
	.loc 1 108 6
	addi	a5,a3,1544
	add	a5,a5,sp
	lw	a5,0(a5)
	addi	a5,a5,32
	addi	a4,a3,1540
	add	a4,a4,sp
	sw	a5,0(a4)
	.loc 1 109 7
	addi	a5,a3,1540
	add	a5,a5,sp
	lw	a5,0(a5)
	addi	a5,a5,64
	addi	a4,a3,1536
	add	a4,a4,sp
	sw	a5,0(a4)
	.loc 1 110 6
	addi	a5,a3,1536
	add	a5,a5,sp
	lw	a5,0(a5)
	addi	a5,a5,32
	addi	a4,a3,1532
	add	a4,a4,sp
	sw	a5,0(a4)
	.loc 1 111 12
	addi	a5,a3,1532
	add	a5,a5,sp
	lw	a5,0(a5)
	addi	a5,a5,64
	addi	a4,a3,1528
	add	a4,a4,sp
	sw	a5,0(a4)
	.loc 1 112 3
	li	a5,-49152
	addi	a4,a3,1552
	add	a4,a4,sp
	add	a5,a4,a5
	li	a4,-36864
	addi	a4,a4,-284
	addi	a2,a3,1552
	add	a2,a2,sp
	add	a1,a2,a4
	li	a4,-20480
	addi	a4,a4,-284
	addi	a2,a3,1552
	add	a2,a2,sp
	add	a2,a2,a4
	li	a4,-32768
	addi	a4,a4,-284
	mv	s0,a3
	addi	a3,a3,1552
	add	a3,a3,sp
	add	a3,a3,a4
	lw	a6,-1552(a5)
	mv	a5,a1
	mv	a4,a2
	addi	a2,s0,1536
	add	a2,a2,sp
	lw	a2,0(a2)
	addi	a1,s0,1540
	add	a1,a1,sp
	lw	a1,0(a1)
	addi	a0,s0,1544
	add	a0,a0,sp
	lw	a0,0(a0)
	call	pqcrystals_dilithium2_ref_unpack_sk
	.loc 1 115 3
	li	a5,-49152
	addi	a5,a5,-1520
	addi	a4,s0,1552
	add	a4,a4,sp
	add	a5,a4,a5
	mv	a0,a5
	call	pqcrystals_dilithium_fips202_ref_shake256_init
	.loc 1 116 3
	li	a5,-49152
	addi	a5,a5,-1520
	addi	a4,s0,1552
	add	a4,a4,sp
	add	a5,a4,a5
	li	a2,64
	addi	a4,s0,1540
	add	a4,a4,sp
	lw	a1,0(a4)
	mv	a0,a5
	call	pqcrystals_dilithium_fips202_ref_shake256_absorb
	.loc 1 117 3
	li	a5,-49152
	addi	a4,s0,1552
	add	a4,a4,sp
	add	a4,a4,a5
	li	a5,-49152
	addi	a3,s0,1552
	add	a3,a3,sp
	add	a5,a3,a5
	li	a3,-49152
	addi	a3,a3,-1520
	addi	a2,s0,1552
	add	a2,a2,sp
	add	a3,a2,a3
	lw	a2,-1544(a4)
	lw	a1,-1540(a5)
	mv	a0,a3
	call	pqcrystals_dilithium_fips202_ref_shake256_absorb
	.loc 1 118 3
	li	a5,-49152
	addi	a4,s0,1552
	add	a4,a4,sp
	add	a4,a4,a5
	li	a5,-49152
	addi	a3,s0,1552
	add	a3,a3,sp
	add	a5,a3,a5
	li	a3,-49152
	addi	a3,a3,-1520
	addi	a2,s0,1552
	add	a2,a2,sp
	add	a3,a2,a3
	lw	a2,-1536(a4)
	lw	a1,-1532(a5)
	mv	a0,a3
	call	pqcrystals_dilithium_fips202_ref_shake256_absorb
	.loc 1 119 3
	li	a5,-49152
	addi	a5,a5,-1520
	addi	a4,s0,1552
	add	a4,a4,sp
	add	a5,a4,a5
	mv	a0,a5
	call	pqcrystals_dilithium_fips202_ref_shake256_finalize
	.loc 1 120 3
	li	a5,-49152
	addi	a5,a5,-1520
	addi	a4,s0,1552
	add	a4,a4,sp
	add	a5,a4,a5
	mv	a2,a5
	li	a1,64
	addi	a5,s0,1532
	add	a5,a5,sp
	lw	a0,0(a5)
	call	pqcrystals_dilithium_fips202_ref_shake256_squeeze
	.loc 1 123 3
	li	a5,-49152
	addi	a5,a5,-1520
	addi	a4,s0,1552
	add	a4,a4,sp
	add	a5,a4,a5
	mv	a0,a5
	call	pqcrystals_dilithium_fips202_ref_shake256_init
	.loc 1 124 3
	li	a5,-49152
	addi	a5,a5,-1520
	addi	a4,s0,1552
	add	a4,a4,sp
	add	a5,a4,a5
	li	a2,32
	addi	a4,s0,1536
	add	a4,a4,sp
	lw	a1,0(a4)
	mv	a0,a5
	call	pqcrystals_dilithium_fips202_ref_shake256_absorb
	.loc 1 125 3
	li	a5,-49152
	addi	a4,s0,1552
	add	a4,a4,sp
	add	a5,a4,a5
	li	a4,-49152
	addi	a4,a4,-1520
	addi	a3,s0,1552
	add	a3,a3,sp
	add	a4,a3,a4
	li	a2,32
	lw	a1,-1548(a5)
	mv	a0,a4
	call	pqcrystals_dilithium_fips202_ref_shake256_absorb
	.loc 1 126 3
	li	a5,-49152
	addi	a5,a5,-1520
	addi	a4,s0,1552
	add	a4,a4,sp
	add	a5,a4,a5
	li	a2,64
	addi	a4,s0,1532
	add	a4,a4,sp
	lw	a1,0(a4)
	mv	a0,a5
	call	pqcrystals_dilithium_fips202_ref_shake256_absorb
	.loc 1 127 3
	li	a5,-49152
	addi	a5,a5,-1520
	addi	a4,s0,1552
	add	a4,a4,sp
	add	a5,a4,a5
	mv	a0,a5
	call	pqcrystals_dilithium_fips202_ref_shake256_finalize
	.loc 1 128 3
	li	a5,-49152
	addi	a5,a5,-1520
	addi	a4,s0,1552
	add	a4,a4,sp
	add	a5,a4,a5
	mv	a2,a5
	li	a1,64
	addi	a5,s0,1528
	add	a5,a5,sp
	lw	a0,0(a5)
	call	pqcrystals_dilithium_fips202_ref_shake256_squeeze
	.loc 1 131 3
	li	a5,-16384
	addi	a5,a5,-284
	addi	a4,s0,1552
	add	a4,a4,sp
	add	a5,a4,a5
	addi	a4,s0,1544
	add	a4,a4,sp
	lw	a1,0(a4)
	mv	a0,a5
	call	pqcrystals_dilithium2_ref_polyvec_matrix_expand
	.loc 1 132 3
	li	a5,-20480
	addi	a5,a5,-284
	addi	a4,s0,1552
	add	a4,a4,sp
	add	a5,a4,a5
	mv	a0,a5
	call	pqcrystals_dilithium2_ref_polyvecl_ntt
	.loc 1 133 3
	li	a5,-36864
	addi	a5,a5,-284
	addi	a4,s0,1552
	add	a4,a4,sp
	add	a5,a4,a5
	mv	a0,a5
	call	pqcrystals_dilithium2_ref_polyveck_ntt
	.loc 1 134 3
	li	a5,-32768
	addi	a5,a5,-284
	addi	a4,s0,1552
	add	a4,a4,sp
	add	a5,a4,a5
	mv	a0,a5
	call	pqcrystals_dilithium2_ref_polyveck_ntt
.L4:
	.loc 1 138 3
	li	a3,49152
	addi	a5,a3,1550
	add	a5,a5,sp
	lhu	a5,0(a5)
	addi	a4,a5,1
	addi	a2,a3,1550
	add	a2,a2,sp
	sh	a4,0(a2)
	li	a4,-24576
	addi	a4,a4,-284
	mv	s0,a3
	addi	a3,s0,1552
	add	a3,a3,sp
	add	a4,a3,a4
	mv	a2,a5
	addi	a5,s0,1528
	add	a5,a5,sp
	lw	a1,0(a5)
	mv	a0,a4
	call	pqcrystals_dilithium2_ref_polyvecl_uniform_gamma1
	.loc 1 141 5
	li	a5,-28672
	addi	a4,s0,1552
	add	a4,a4,sp
	add	a4,a4,a5
	li	a5,-24576
	addi	a3,s0,1552
	add	a3,a3,sp
	add	a5,a3,a5
	addi	a4,a4,-284
	addi	a5,a5,-284
	li	a3,4096
	mv	a2,a3
	mv	a1,a5
	mv	a0,a4
	call	memcpy
	.loc 1 142 3
	li	a5,-28672
	addi	a5,a5,-284
	addi	a4,s0,1552
	add	a4,a4,sp
	add	a5,a4,a5
	mv	a0,a5
	call	pqcrystals_dilithium2_ref_polyvecl_ntt
	.loc 1 143 3
	li	a5,-28672
	addi	a5,a5,-284
	addi	a4,s0,1552
	add	a4,a4,sp
	add	a3,a4,a5
	li	a5,-16384
	addi	a5,a5,-284
	addi	a4,s0,1552
	add	a4,a4,sp
	add	a4,a4,a5
	li	a5,-40960
	addi	a5,a5,-284
	addi	a2,s0,1552
	add	a2,a2,sp
	add	a5,a2,a5
	mv	a2,a3
	mv	a1,a4
	mv	a0,a5
	call	pqcrystals_dilithium2_ref_polyvec_matrix_pointwise_montgomery
	.loc 1 144 3
	li	a5,-40960
	addi	a5,a5,-284
	addi	a4,s0,1552
	add	a4,a4,sp
	add	a5,a4,a5
	mv	a0,a5
	call	pqcrystals_dilithium2_ref_polyveck_reduce
	.loc 1 145 3
	li	a5,-40960
	addi	a5,a5,-284
	addi	a4,s0,1552
	add	a4,a4,sp
	add	a5,a4,a5
	mv	a0,a5
	call	pqcrystals_dilithium2_ref_polyveck_invntt_tomont
	.loc 1 148 3
	li	a5,-40960
	addi	a5,a5,-284
	addi	a4,s0,1552
	add	a4,a4,sp
	add	a5,a4,a5
	mv	a0,a5
	call	pqcrystals_dilithium2_ref_polyveck_caddq
	.loc 1 149 3
	li	a5,-40960
	addi	a5,a5,-284
	addi	a4,s0,1552
	add	a4,a4,sp
	add	a3,a4,a5
	li	a5,-45056
	addi	a5,a5,-284
	addi	a4,s0,1552
	add	a4,a4,sp
	add	a4,a4,a5
	li	a5,-40960
	addi	a5,a5,-284
	addi	a2,s0,1552
	add	a2,a2,sp
	add	a5,a2,a5
	mv	a2,a3
	mv	a1,a4
	mv	a0,a5
	call	pqcrystals_dilithium2_ref_polyveck_decompose
	.loc 1 150 3
	li	a5,-40960
	addi	a5,a5,-284
	addi	a4,s0,1552
	add	a4,a4,sp
	add	a4,a4,a5
	li	a5,-49152
	addi	a3,s0,1552
	add	a3,a3,sp
	add	a5,a3,a5
	mv	a1,a4
	lw	a0,-1524(a5)
	call	pqcrystals_dilithium2_ref_polyveck_pack_w1
	.loc 1 152 3
	li	a5,-49152
	addi	a5,a5,-1520
	addi	a4,s0,1552
	add	a4,a4,sp
	add	a5,a4,a5
	mv	a0,a5
	call	pqcrystals_dilithium_fips202_ref_shake256_init
	.loc 1 153 3
	li	a5,-49152
	addi	a5,a5,-1520
	addi	a4,s0,1552
	add	a4,a4,sp
	add	a5,a4,a5
	li	a2,64
	addi	a4,s0,1532
	add	a4,a4,sp
	lw	a1,0(a4)
	mv	a0,a5
	call	pqcrystals_dilithium_fips202_ref_shake256_absorb
	.loc 1 154 3
	li	a5,-49152
	addi	a4,s0,1552
	add	a4,a4,sp
	add	a5,a4,a5
	li	a4,-49152
	addi	a4,a4,-1520
	addi	a3,s0,1552
	add	a3,a3,sp
	add	a4,a3,a4
	li	a2,768
	lw	a1,-1524(a5)
	mv	a0,a4
	call	pqcrystals_dilithium_fips202_ref_shake256_absorb
	.loc 1 155 3
	li	a5,-49152
	addi	a5,a5,-1520
	addi	a4,s0,1552
	add	a4,a4,sp
	add	a5,a4,a5
	mv	a0,a5
	call	pqcrystals_dilithium_fips202_ref_shake256_finalize
	.loc 1 156 3
	li	a5,-49152
	addi	a5,a5,-1520
	addi	a4,s0,1552
	add	a4,a4,sp
	add	a4,a4,a5
	li	a5,-49152
	addi	a3,s0,1552
	add	a3,a3,sp
	add	a5,a3,a5
	mv	a2,a4
	li	a1,32
	lw	a0,-1524(a5)
	call	pqcrystals_dilithium_fips202_ref_shake256_squeeze
	.loc 1 157 3
	li	a5,-49152
	addi	a4,s0,1552
	add	a4,a4,sp
	add	a5,a4,a5
	li	a4,-49152
	addi	a4,a4,-1308
	addi	a3,s0,1552
	add	a3,a3,sp
	add	a4,a3,a4
	lw	a1,-1524(a5)
	mv	a0,a4
	call	pqcrystals_dilithium2_ref_poly_challenge
	.loc 1 158 3
	li	a5,-49152
	addi	a5,a5,-1308
	addi	a4,s0,1552
	add	a4,a4,sp
	add	a5,a4,a5
	mv	a0,a5
	call	pqcrystals_dilithium2_ref_poly_ntt
	.loc 1 161 3
	li	a5,-20480
	addi	a5,a5,-284
	addi	a4,s0,1552
	add	a4,a4,sp
	add	a3,a4,a5
	li	a5,-49152
	addi	a5,a5,-1308
	addi	a4,s0,1552
	add	a4,a4,sp
	add	a4,a4,a5
	li	a5,-28672
	addi	a5,a5,-284
	addi	a2,s0,1552
	add	a2,a2,sp
	add	a5,a2,a5
	mv	a2,a3
	mv	a1,a4
	mv	a0,a5
	call	pqcrystals_dilithium2_ref_polyvecl_pointwise_poly_montgomery
	.loc 1 162 3
	li	a5,-28672
	addi	a5,a5,-284
	addi	a4,s0,1552
	add	a4,a4,sp
	add	a5,a4,a5
	mv	a0,a5
	call	pqcrystals_dilithium2_ref_polyvecl_invntt_tomont
	.loc 1 163 3
	li	a5,-24576
	addi	a5,a5,-284
	addi	a4,s0,1552
	add	a4,a4,sp
	add	a3,a4,a5
	li	a5,-28672
	addi	a5,a5,-284
	addi	a4,s0,1552
	add	a4,a4,sp
	add	a4,a4,a5
	li	a5,-28672
	addi	a5,a5,-284
	addi	a2,s0,1552
	add	a2,a2,sp
	add	a5,a2,a5
	mv	a2,a3
	mv	a1,a4
	mv	a0,a5
	call	pqcrystals_dilithium2_ref_polyvecl_add
	.loc 1 164 3
	li	a5,-28672
	addi	a5,a5,-284
	addi	a4,s0,1552
	add	a4,a4,sp
	add	a5,a4,a5
	mv	a0,a5
	call	pqcrystals_dilithium2_ref_polyvecl_reduce
	.loc 1 165 6
	li	a5,-28672
	addi	a5,a5,-284
	addi	a4,s0,1552
	add	a4,a4,sp
	add	a4,a4,a5
	li	a5,131072
	addi	a1,a5,-78
	mv	a0,a4
	call	pqcrystals_dilithium2_ref_polyvecl_chknorm
	mv	a5,a0
	.loc 1 165 5
	beq	a5,zero,.L5
	.loc 1 166 5
	j	.L4
.L5:
	.loc 1 170 3
	li	a5,-36864
	addi	a5,a5,-284
	li	s0,49152
	addi	a4,s0,1552
	add	a4,a4,sp
	add	a3,a4,a5
	li	a5,-49152
	addi	a5,a5,-1308
	addi	a4,s0,1552
	add	a4,a4,sp
	add	a4,a4,a5
	li	a5,-49152
	addi	a5,a5,-284
	addi	a2,s0,1552
	add	a2,a2,sp
	add	a5,a2,a5
	mv	a2,a3
	mv	a1,a4
	mv	a0,a5
	call	pqcrystals_dilithium2_ref_polyveck_pointwise_poly_montgomery
	.loc 1 171 3
	li	a5,-49152
	addi	a5,a5,-284
	addi	a4,s0,1552
	add	a4,a4,sp
	add	a5,a4,a5
	mv	a0,a5
	call	pqcrystals_dilithium2_ref_polyveck_invntt_tomont
	.loc 1 172 3
	li	a5,-49152
	addi	a5,a5,-284
	addi	a4,s0,1552
	add	a4,a4,sp
	add	a3,a4,a5
	li	a5,-45056
	addi	a5,a5,-284
	addi	a4,s0,1552
	add	a4,a4,sp
	add	a4,a4,a5
	li	a5,-45056
	addi	a5,a5,-284
	addi	a2,s0,1552
	add	a2,a2,sp
	add	a5,a2,a5
	mv	a2,a3
	mv	a1,a4
	mv	a0,a5
	call	pqcrystals_dilithium2_ref_polyveck_sub
	.loc 1 173 3
	li	a5,-45056
	addi	a5,a5,-284
	addi	a4,s0,1552
	add	a4,a4,sp
	add	a5,a4,a5
	mv	a0,a5
	call	pqcrystals_dilithium2_ref_polyveck_reduce
	.loc 1 174 6
	li	a5,-45056
	addi	a5,a5,-284
	addi	a4,s0,1552
	add	a4,a4,sp
	add	a4,a4,a5
	li	a5,94208
	addi	a1,a5,946
	mv	a0,a4
	call	pqcrystals_dilithium2_ref_polyveck_chknorm
	mv	a5,a0
	.loc 1 174 5
	beq	a5,zero,.L6
	.loc 1 175 5
	j	.L4
.L6:
	.loc 1 178 3
	li	a5,-32768
	addi	a5,a5,-284
	li	s0,49152
	addi	a4,s0,1552
	add	a4,a4,sp
	add	a3,a4,a5
	li	a5,-49152
	addi	a5,a5,-1308
	addi	a4,s0,1552
	add	a4,a4,sp
	add	a4,a4,a5
	li	a5,-49152
	addi	a5,a5,-284
	addi	a2,s0,1552
	add	a2,a2,sp
	add	a5,a2,a5
	mv	a2,a3
	mv	a1,a4
	mv	a0,a5
	call	pqcrystals_dilithium2_ref_polyveck_pointwise_poly_montgomery
	.loc 1 179 3
	li	a5,-49152
	addi	a5,a5,-284
	addi	a4,s0,1552
	add	a4,a4,sp
	add	a5,a4,a5
	mv	a0,a5
	call	pqcrystals_dilithium2_ref_polyveck_invntt_tomont
	.loc 1 180 3
	li	a5,-49152
	addi	a5,a5,-284
	addi	a4,s0,1552
	add	a4,a4,sp
	add	a5,a4,a5
	mv	a0,a5
	call	pqcrystals_dilithium2_ref_polyveck_reduce
	.loc 1 181 6
	li	a5,-49152
	addi	a5,a5,-284
	addi	a4,s0,1552
	add	a4,a4,sp
	add	a4,a4,a5
	li	a5,94208
	addi	a1,a5,1024
	mv	a0,a4
	call	pqcrystals_dilithium2_ref_polyveck_chknorm
	mv	a5,a0
	.loc 1 181 5
	beq	a5,zero,.L7
	.loc 1 182 5
	j	.L4
.L7:
	.loc 1 184 3
	li	a5,-49152
	addi	a5,a5,-284
	li	s0,49152
	addi	a4,s0,1552
	add	a4,a4,sp
	add	a3,a4,a5
	li	a5,-45056
	addi	a5,a5,-284
	addi	a4,s0,1552
	add	a4,a4,sp
	add	a4,a4,a5
	li	a5,-45056
	addi	a5,a5,-284
	addi	a2,s0,1552
	add	a2,a2,sp
	add	a5,a2,a5
	mv	a2,a3
	mv	a1,a4
	mv	a0,a5
	call	pqcrystals_dilithium2_ref_polyveck_add
	.loc 1 185 7
	li	a5,-40960
	addi	a5,a5,-284
	addi	a4,s0,1552
	add	a4,a4,sp
	add	a3,a4,a5
	li	a5,-45056
	addi	a5,a5,-284
	addi	a4,s0,1552
	add	a4,a4,sp
	add	a4,a4,a5
	li	a5,-49152
	addi	a5,a5,-284
	addi	a2,s0,1552
	add	a2,a2,sp
	add	a5,a2,a5
	mv	a2,a3
	mv	a1,a4
	mv	a0,a5
	call	pqcrystals_dilithium2_ref_polyveck_make_hint
	addi	a5,s0,1524
	add	a5,a5,sp
	sw	a0,0(a5)
	.loc 1 186 5
	addi	a5,s0,1524
	add	a5,a5,sp
	lw	a4,0(a5)
	li	a5,80
	bleu	a4,a5,.L8
	.loc 1 187 5
	j	.L4
.L8:
	.loc 1 190 3
	li	a5,-49152
	addi	a5,a5,-284
	li	s0,49152
	addi	a4,s0,1552
	add	a4,a4,sp
	add	a3,a4,a5
	li	a5,-28672
	addi	a5,a5,-284
	addi	a4,s0,1552
	add	a4,a4,sp
	add	a2,a4,a5
	li	a5,-49152
	addi	a4,s0,1552
	add	a4,a4,sp
	add	a4,a4,a5
	li	a5,-49152
	addi	a1,s0,1552
	add	a1,a1,sp
	add	a5,a1,a5
	lw	a1,-1524(a4)
	lw	a0,-1524(a5)
	call	pqcrystals_dilithium2_ref_pack_sig
	.loc 1 191 11
	li	a5,-49152
	addi	a4,s0,1552
	add	a4,a4,sp
	add	a5,a4,a5
	lw	a5,-1528(a5)
	li	a4,4096
	addi	a4,a4,-1676
	sw	a4,0(a5)
	.loc 1 192 10
	li	a5,0
	.loc 1 193 1
	mv	a0,a5
	li	t1,49152
	add	sp,sp,t1
	.cfi_def_cfa_offset 1568
	lw	ra,1564(sp)
	.cfi_restore 1
	lw	s0,1560(sp)
	.cfi_restore 8
	addi	sp,sp,1568
	.cfi_def_cfa_offset 0
	jr	ra
	.cfi_endproc
.LFE1:
	.size	pqcrystals_dilithium2_ref_signature_internal, .-pqcrystals_dilithium2_ref_signature_internal
	.align	1
	.globl	pqcrystals_dilithium2_ref_signature
	.type	pqcrystals_dilithium2_ref_signature, @function
pqcrystals_dilithium2_ref_signature:
.LFB2:
	.loc 1 217 1
	.cfi_startproc
	addi	sp,sp,-352
	.cfi_def_cfa_offset 352
	sw	ra,348(sp)
	.cfi_offset 1, -4
	sw	a0,28(sp)
	sw	a1,24(sp)
	sw	a2,20(sp)
	sw	a3,16(sp)
	sw	a4,12(sp)
	sw	a5,8(sp)
	sw	a6,4(sp)
	.loc 1 222 5
	lw	a4,8(sp)
	li	a5,255
	bleu	a4,a5,.L11
	.loc 1 223 12
	li	a5,-1
	j	.L15
.L11:
	.loc 1 226 10
	sb	zero,72(sp)
	.loc 1 227 10
	lw	a5,8(sp)
	andi	a5,a5,0xff
	sb	a5,73(sp)
	.loc 1 228 9
	sw	zero,332(sp)
	.loc 1 228 3
	j	.L13
.L14:
	.loc 1 229 21 discriminator 3
	lw	a4,12(sp)
	lw	a5,332(sp)
	add	a4,a4,a5
	.loc 1 229 11 discriminator 3
	lw	a5,332(sp)
	addi	a5,a5,2
	.loc 1 229 21 discriminator 3
	lbu	a4,0(a4)
	.loc 1 229 16 discriminator 3
	addi	a3,sp,336
	add	a5,a3,a5
	sb	a4,-264(a5)
	.loc 1 228 27 discriminator 3
	lw	a5,332(sp)
	addi	a5,a5,1
	sw	a5,332(sp)
.L13:
	.loc 1 228 3 discriminator 1
	lw	a4,332(sp)
	lw	a5,8(sp)
	bltu	a4,a5,.L14
	.loc 1 232 3
	addi	a5,sp,40
	li	a1,32
	mv	a0,a5
	call	randombytes
	.loc 1 238 3
	lw	a5,8(sp)
	addi	a5,a5,2
	addi	a3,sp,40
	addi	a4,sp,72
	lw	a7,4(sp)
	mv	a6,a3
	lw	a3,16(sp)
	lw	a2,20(sp)
	lw	a1,24(sp)
	lw	a0,28(sp)
	call	pqcrystals_dilithium2_ref_signature_internal
	.loc 1 239 10
	li	a5,0
.L15:
	.loc 1 240 1 discriminator 1
	mv	a0,a5
	lw	ra,348(sp)
	.cfi_restore 1
	addi	sp,sp,352
	.cfi_def_cfa_offset 0
	jr	ra
	.cfi_endproc
.LFE2:
	.size	pqcrystals_dilithium2_ref_signature, .-pqcrystals_dilithium2_ref_signature
	.align	1
	.globl	pqcrystals_dilithium2_ref
	.type	pqcrystals_dilithium2_ref, @function
pqcrystals_dilithium2_ref:
.LFB3:
	.loc 1 267 1
	.cfi_startproc
	addi	sp,sp,-64
	.cfi_def_cfa_offset 64
	sw	ra,60(sp)
	.cfi_offset 1, -4
	sw	a0,28(sp)
	sw	a1,24(sp)
	sw	a2,20(sp)
	sw	a3,16(sp)
	sw	a4,12(sp)
	sw	a5,8(sp)
	sw	a6,4(sp)
	.loc 1 271 9
	sw	zero,44(sp)
	.loc 1 271 3
	j	.L17
.L18:
	.loc 1 272 61 discriminator 3
	lw	a4,16(sp)
	lw	a5,44(sp)
	sub	a5,a4,a5
	addi	a5,a5,-1
	.loc 1 272 51 discriminator 3
	lw	a4,20(sp)
	add	a4,a4,a5
	.loc 1 272 43 discriminator 3
	lw	a3,16(sp)
	lw	a5,44(sp)
	sub	a3,a3,a5
	li	a5,4096
	addi	a5,a5,-1677
	add	a5,a3,a5
	.loc 1 272 7 discriminator 3
	lw	a3,28(sp)
	add	a5,a3,a5
	.loc 1 272 51 discriminator 3
	lbu	a4,0(a4)
	.loc 1 272 48 discriminator 3
	sb	a4,0(a5)
	.loc 1 271 24 discriminator 3
	lw	a5,44(sp)
	addi	a5,a5,1
	sw	a5,44(sp)
.L17:
	.loc 1 271 3 discriminator 1
	lw	a4,44(sp)
	lw	a5,16(sp)
	bltu	a4,a5,.L18
	.loc 1 273 59
	lw	a4,28(sp)
	li	a5,4096
	addi	a5,a5,-1676
	add	a2,a4,a5
	.loc 1 273 9
	lw	a6,4(sp)
	lw	a5,8(sp)
	lw	a4,12(sp)
	lw	a3,16(sp)
	lw	a1,24(sp)
	lw	a0,28(sp)
	call	pqcrystals_dilithium2_ref_signature
	sw	a0,40(sp)
	.loc 1 274 10
	lw	a5,24(sp)
	lw	a4,0(a5)
	lw	a5,16(sp)
	add	a4,a4,a5
	lw	a5,24(sp)
	sw	a4,0(a5)
	.loc 1 275 10
	lw	a5,40(sp)
	.loc 1 276 1
	mv	a0,a5
	lw	ra,60(sp)
	.cfi_restore 1
	addi	sp,sp,64
	.cfi_def_cfa_offset 0
	jr	ra
	.cfi_endproc
.LFE3:
	.size	pqcrystals_dilithium2_ref, .-pqcrystals_dilithium2_ref
	.align	1
	.globl	pqcrystals_dilithium2_ref_verify_internal
	.type	pqcrystals_dilithium2_ref_verify_internal, @function
pqcrystals_dilithium2_ref_verify_internal:
.LFB4:
	.loc 1 300 1
	.cfi_startproc
	addi	sp,sp,-32
	.cfi_def_cfa_offset 32
	sw	ra,28(sp)
	sw	s0,24(sp)
	sw	s1,20(sp)
	li	t1,-36864
	addi	t1,t1,1904
	add	sp,sp,t1
	.cfi_def_cfa_offset 34992
	.cfi_offset 1, -4
	.cfi_offset 8, -8
	.cfi_offset 9, -12
	li	a7,-36864
	li	s0,36864
	addi	s1,s0,-1888
	add	s1,s1,sp
	add	a7,s1,a7
	sw	a0,1916(a7)
	li	a0,-36864
	addi	s1,s0,-1888
	add	s1,s1,sp
	add	a0,s1,a0
	sw	a1,1912(a0)
	li	a1,-36864
	mv	a0,s0
	addi	s0,a0,-1888
	add	s0,s0,sp
	add	a1,s0,a1
	sw	a2,1908(a1)
	li	a2,-36864
	mv	a1,a0
	addi	a0,a1,-1888
	add	a0,a0,sp
	add	a2,a0,a2
	sw	a3,1904(a2)
	li	a3,-36864
	mv	a2,a1
	addi	a1,a2,-1888
	add	a1,a1,sp
	add	a3,a1,a3
	sw	a4,1900(a3)
	li	a4,-36864
	mv	a3,a2
	addi	a2,a3,-1888
	add	a2,a2,sp
	add	a4,a2,a4
	sw	a5,1896(a4)
	li	a5,-36864
	mv	a4,a3
	addi	a3,a4,-1888
	add	a3,a3,sp
	add	a5,a3,a5
	sw	a6,1892(a5)
	.loc 1 312 5
	li	a5,-36864
	addi	a4,a4,-1888
	add	a4,a4,sp
	add	a5,a4,a5
	lw	a4,1912(a5)
	li	a5,4096
	addi	a5,a5,-1676
	beq	a4,a5,.L21
	.loc 1 313 12
	li	a5,-1
	j	.L28
.L21:
	.loc 1 315 3
	li	a5,-36864
	li	s0,36864
	addi	a4,s0,-1888
	add	a4,a4,sp
	add	a5,a4,a5
	li	a4,-24576
	addi	a4,a4,-1956
	addi	a3,s0,-1888
	add	a3,a3,sp
	add	a3,a3,a4
	li	s1,32768
	addi	a4,s1,1404
	add	a4,sp,a4
	lw	a2,1892(a5)
	mv	a1,a3
	mv	a0,a4
	call	pqcrystals_dilithium2_ref_unpack_pk
	.loc 1 316 6
	li	a5,-36864
	addi	a4,s0,-1888
	add	a4,a4,sp
	add	a5,a4,a5
	li	a4,-32768
	addi	a4,a4,-1956
	addi	a3,s0,-1888
	add	a3,a3,sp
	add	a2,a3,a4
	li	a4,-20480
	addi	a4,a4,-1956
	addi	a3,s0,-1888
	add	a3,a3,sp
	add	a1,a3,a4
	addi	a4,s1,1308
	add	a4,sp,a4
	lw	a3,1916(a5)
	mv	a0,a4
	call	pqcrystals_dilithium2_ref_unpack_sig
	mv	a5,a0
	.loc 1 316 5
	beq	a5,zero,.L23
	.loc 1 317 12
	li	a5,-1
	j	.L28
.L23:
	.loc 1 318 6
	li	a5,-20480
	addi	a5,a5,-1956
	li	a4,36864
	addi	a4,a4,-1888
	add	a4,a4,sp
	add	a4,a4,a5
	li	a5,131072
	addi	a1,a5,-78
	mv	a0,a4
	call	pqcrystals_dilithium2_ref_polyvecl_chknorm
	mv	a5,a0
	.loc 1 318 5
	beq	a5,zero,.L24
	.loc 1 319 12
	li	a5,-1
	j	.L28
.L24:
	.loc 1 322 3
	li	a5,-36864
	li	s0,36864
	addi	a4,s0,-1888
	add	a4,a4,sp
	add	a5,a4,a5
	li	s1,32768
	addi	a4,s1,1340
	add	a4,sp,a4
	li	a3,1312
	lw	a2,1892(a5)
	li	a1,64
	mv	a0,a4
	call	pqcrystals_dilithium_fips202_ref_shake256
	.loc 1 323 3
	li	a5,-36864
	addi	a5,a5,1928
	addi	a4,s0,-1888
	add	a4,a4,sp
	add	a5,a4,a5
	mv	a0,a5
	call	pqcrystals_dilithium_fips202_ref_shake256_init
	.loc 1 324 3
	addi	a5,s1,1340
	add	a4,sp,a5
	li	a5,-36864
	addi	a5,a5,1928
	addi	a3,s0,-1888
	add	a3,a3,sp
	add	a5,a3,a5
	li	a2,64
	mv	a1,a4
	mv	a0,a5
	call	pqcrystals_dilithium_fips202_ref_shake256_absorb
	.loc 1 325 3
	li	a5,-36864
	addi	a4,s0,-1888
	add	a4,a4,sp
	add	a4,a4,a5
	li	a5,-36864
	addi	a3,s0,-1888
	add	a3,a3,sp
	add	a5,a3,a5
	li	a3,-36864
	addi	a3,a3,1928
	addi	a2,s0,-1888
	add	a2,a2,sp
	add	a3,a2,a3
	lw	a2,1896(a4)
	lw	a1,1900(a5)
	mv	a0,a3
	call	pqcrystals_dilithium_fips202_ref_shake256_absorb
	.loc 1 326 3
	li	a5,-36864
	addi	a4,s0,-1888
	add	a4,a4,sp
	add	a4,a4,a5
	li	a5,-36864
	addi	a3,s0,-1888
	add	a3,a3,sp
	add	a5,a3,a5
	li	a3,-36864
	addi	a3,a3,1928
	addi	a2,s0,-1888
	add	a2,a2,sp
	add	a3,a2,a3
	lw	a2,1904(a4)
	lw	a1,1908(a5)
	mv	a0,a3
	call	pqcrystals_dilithium_fips202_ref_shake256_absorb
	.loc 1 327 3
	li	a5,-36864
	addi	a5,a5,1928
	addi	a4,s0,-1888
	add	a4,a4,sp
	add	a5,a4,a5
	mv	a0,a5
	call	pqcrystals_dilithium_fips202_ref_shake256_finalize
	.loc 1 328 3
	li	a5,-36864
	addi	a5,a5,1928
	addi	a4,s0,-1888
	add	a4,a4,sp
	add	a4,a4,a5
	addi	a5,s1,1340
	add	a5,sp,a5
	mv	a2,a4
	li	a1,64
	mv	a0,a5
	call	pqcrystals_dilithium_fips202_ref_shake256_squeeze
	.loc 1 331 3
	addi	a5,s1,1308
	add	a4,sp,a5
	addi	a5,s1,252
	add	a5,sp,a5
	mv	a1,a4
	mv	a0,a5
	call	pqcrystals_dilithium2_ref_poly_challenge
	.loc 1 332 3
	addi	a5,s1,1404
	add	a4,sp,a5
	li	a5,-16384
	addi	a5,a5,-1956
	addi	a3,s0,-1888
	add	a3,a3,sp
	add	a5,a3,a5
	mv	a1,a4
	mv	a0,a5
	call	pqcrystals_dilithium2_ref_polyvec_matrix_expand
	.loc 1 334 3
	li	a5,-20480
	addi	a5,a5,-1956
	addi	a4,s0,-1888
	add	a4,a4,sp
	add	a5,a4,a5
	mv	a0,a5
	call	pqcrystals_dilithium2_ref_polyvecl_ntt
	.loc 1 335 3
	li	a5,-20480
	addi	a5,a5,-1956
	addi	a4,s0,-1888
	add	a4,a4,sp
	add	a3,a4,a5
	li	a5,-16384
	addi	a5,a5,-1956
	addi	a4,s0,-1888
	add	a4,a4,sp
	add	a4,a4,a5
	li	a5,-28672
	addi	a5,a5,-1956
	addi	a2,s0,-1888
	add	a2,a2,sp
	add	a5,a2,a5
	mv	a2,a3
	mv	a1,a4
	mv	a0,a5
	call	pqcrystals_dilithium2_ref_polyvec_matrix_pointwise_montgomery
	.loc 1 337 3
	addi	a5,s1,252
	add	a5,sp,a5
	mv	a0,a5
	call	pqcrystals_dilithium2_ref_poly_ntt
	.loc 1 338 3
	li	a5,-24576
	addi	a5,a5,-1956
	addi	a4,s0,-1888
	add	a4,a4,sp
	add	a5,a4,a5
	mv	a0,a5
	call	pqcrystals_dilithium2_ref_polyveck_shiftl
	.loc 1 339 3
	li	a5,-24576
	addi	a5,a5,-1956
	addi	a4,s0,-1888
	add	a4,a4,sp
	add	a5,a4,a5
	mv	a0,a5
	call	pqcrystals_dilithium2_ref_polyveck_ntt
	.loc 1 340 3
	li	a5,-24576
	addi	a5,a5,-1956
	addi	a4,s0,-1888
	add	a4,a4,sp
	add	a3,a4,a5
	addi	a5,s1,252
	add	a4,sp,a5
	li	a5,-24576
	addi	a5,a5,-1956
	addi	a2,s0,-1888
	add	a2,a2,sp
	add	a5,a2,a5
	mv	a2,a3
	mv	a1,a4
	mv	a0,a5
	call	pqcrystals_dilithium2_ref_polyveck_pointwise_poly_montgomery
	.loc 1 342 3
	li	a5,-24576
	addi	a5,a5,-1956
	addi	a4,s0,-1888
	add	a4,a4,sp
	add	a3,a4,a5
	li	a5,-28672
	addi	a5,a5,-1956
	addi	a4,s0,-1888
	add	a4,a4,sp
	add	a4,a4,a5
	li	a5,-28672
	addi	a5,a5,-1956
	addi	a2,s0,-1888
	add	a2,a2,sp
	add	a5,a2,a5
	mv	a2,a3
	mv	a1,a4
	mv	a0,a5
	call	pqcrystals_dilithium2_ref_polyveck_sub
	.loc 1 343 3
	li	a5,-28672
	addi	a5,a5,-1956
	addi	a4,s0,-1888
	add	a4,a4,sp
	add	a5,a4,a5
	mv	a0,a5
	call	pqcrystals_dilithium2_ref_polyveck_reduce
	.loc 1 344 3
	li	a5,-28672
	addi	a5,a5,-1956
	addi	a4,s0,-1888
	add	a4,a4,sp
	add	a5,a4,a5
	mv	a0,a5
	call	pqcrystals_dilithium2_ref_polyveck_invntt_tomont
	.loc 1 347 3
	li	a5,-28672
	addi	a5,a5,-1956
	addi	a4,s0,-1888
	add	a4,a4,sp
	add	a5,a4,a5
	mv	a0,a5
	call	pqcrystals_dilithium2_ref_polyveck_caddq
	.loc 1 348 3
	li	a5,-32768
	addi	a5,a5,-1956
	addi	a4,s0,-1888
	add	a4,a4,sp
	add	a3,a4,a5
	li	a5,-28672
	addi	a5,a5,-1956
	addi	a4,s0,-1888
	add	a4,a4,sp
	add	a4,a4,a5
	li	a5,-28672
	addi	a5,a5,-1956
	addi	a2,s0,-1888
	add	a2,a2,sp
	add	a5,a2,a5
	mv	a2,a3
	mv	a1,a4
	mv	a0,a5
	call	pqcrystals_dilithium2_ref_polyveck_use_hint
	.loc 1 349 3
	li	a5,-28672
	addi	a5,a5,-1956
	addi	a4,s0,-1888
	add	a4,a4,sp
	add	a4,a4,a5
	addi	a5,s1,1436
	add	a5,sp,a5
	mv	a1,a4
	mv	a0,a5
	call	pqcrystals_dilithium2_ref_polyveck_pack_w1
	.loc 1 352 3
	li	a5,-36864
	addi	a5,a5,1928
	addi	a4,s0,-1888
	add	a4,a4,sp
	add	a5,a4,a5
	mv	a0,a5
	call	pqcrystals_dilithium_fips202_ref_shake256_init
	.loc 1 353 3
	addi	a5,s1,1340
	add	a4,sp,a5
	li	a5,-36864
	addi	a5,a5,1928
	addi	a3,s0,-1888
	add	a3,a3,sp
	add	a5,a3,a5
	li	a2,64
	mv	a1,a4
	mv	a0,a5
	call	pqcrystals_dilithium_fips202_ref_shake256_absorb
	.loc 1 354 3
	addi	a5,s1,1436
	add	a4,sp,a5
	li	a5,-36864
	addi	a5,a5,1928
	addi	a3,s0,-1888
	add	a3,a3,sp
	add	a5,a3,a5
	li	a2,768
	mv	a1,a4
	mv	a0,a5
	call	pqcrystals_dilithium_fips202_ref_shake256_absorb
	.loc 1 355 3
	li	a5,-36864
	addi	a5,a5,1928
	addi	a4,s0,-1888
	add	a4,a4,sp
	add	a5,a4,a5
	mv	a0,a5
	call	pqcrystals_dilithium_fips202_ref_shake256_finalize
	.loc 1 356 3
	li	a5,-36864
	addi	a5,a5,1928
	addi	a4,s0,-1888
	add	a4,a4,sp
	add	a4,a4,a5
	addi	a5,s1,1276
	add	a5,sp,a5
	mv	a2,a4
	li	a1,32
	mv	a0,a5
	call	pqcrystals_dilithium_fips202_ref_shake256_squeeze
	.loc 1 357 9
	addi	a5,s0,-1892
	add	a5,a5,sp
	sw	zero,0(a5)
	.loc 1 357 3
	j	.L25
.L27:
	.loc 1 358 9
	li	a3,36864
	addi	a5,a3,-1892
	add	a5,a5,sp
	lw	a5,0(a5)
	addi	a4,a3,-1888
	add	a4,a4,sp
	add	a5,a4,a5
	lbu	a4,-900(a5)
	.loc 1 358 18
	addi	a5,a3,-1892
	add	a5,a5,sp
	lw	a5,0(a5)
	addi	a3,a3,-1888
	add	a3,a3,sp
	add	a5,a3,a5
	lbu	a5,-932(a5)
	.loc 1 358 7
	beq	a4,a5,.L26
	.loc 1 359 14
	li	a5,-1
	j	.L28
.L26:
	.loc 1 357 22 discriminator 2
	li	a4,36864
	addi	a5,a4,-1892
	add	a5,a5,sp
	lw	a5,0(a5)
	addi	a5,a5,1
	addi	a4,a4,-1892
	add	a4,a4,sp
	sw	a5,0(a4)
.L25:
	.loc 1 357 3 discriminator 1
	li	a5,36864
	addi	a5,a5,-1892
	add	a5,a5,sp
	lw	a4,0(a5)
	li	a5,31
	bleu	a4,a5,.L27
	.loc 1 361 10
	li	a5,0
.L28:
	.loc 1 362 1 discriminator 1
	mv	a0,a5
	li	t1,36864
	addi	t1,t1,-1904
	add	sp,sp,t1
	.cfi_def_cfa_offset 32
	lw	ra,28(sp)
	.cfi_restore 1
	lw	s0,24(sp)
	.cfi_restore 8
	lw	s1,20(sp)
	.cfi_restore 9
	addi	sp,sp,32
	.cfi_def_cfa_offset 0
	jr	ra
	.cfi_endproc
.LFE4:
	.size	pqcrystals_dilithium2_ref_verify_internal, .-pqcrystals_dilithium2_ref_verify_internal
	.align	1
	.globl	pqcrystals_dilithium2_ref_verify
	.type	pqcrystals_dilithium2_ref_verify, @function
pqcrystals_dilithium2_ref_verify:
.LFB5:
	.loc 1 386 1
	.cfi_startproc
	addi	sp,sp,-320
	.cfi_def_cfa_offset 320
	sw	ra,316(sp)
	.cfi_offset 1, -4
	sw	a0,28(sp)
	sw	a1,24(sp)
	sw	a2,20(sp)
	sw	a3,16(sp)
	sw	a4,12(sp)
	sw	a5,8(sp)
	sw	a6,4(sp)
	.loc 1 390 5
	lw	a4,8(sp)
	li	a5,255
	bleu	a4,a5,.L30
	.loc 1 391 12
	li	a5,-1
	j	.L34
.L30:
	.loc 1 393 10
	sb	zero,40(sp)
	.loc 1 394 10
	lw	a5,8(sp)
	andi	a5,a5,0xff
	sb	a5,41(sp)
	.loc 1 395 9
	sw	zero,300(sp)
	.loc 1 395 3
	j	.L32
.L33:
	.loc 1 396 21 discriminator 3
	lw	a4,12(sp)
	lw	a5,300(sp)
	add	a4,a4,a5
	.loc 1 396 11 discriminator 3
	lw	a5,300(sp)
	addi	a5,a5,2
	.loc 1 396 21 discriminator 3
	lbu	a4,0(a4)
	.loc 1 396 16 discriminator 3
	addi	a3,sp,304
	add	a5,a3,a5
	sb	a4,-264(a5)
	.loc 1 395 27 discriminator 3
	lw	a5,300(sp)
	addi	a5,a5,1
	sw	a5,300(sp)
.L32:
	.loc 1 395 3 discriminator 1
	lw	a4,300(sp)
	lw	a5,8(sp)
	bltu	a4,a5,.L33
	.loc 1 398 10
	lw	a5,8(sp)
	addi	a5,a5,2
	addi	a4,sp,40
	lw	a6,4(sp)
	lw	a3,16(sp)
	lw	a2,20(sp)
	lw	a1,24(sp)
	lw	a0,28(sp)
	call	pqcrystals_dilithium2_ref_verify_internal
	mv	a5,a0
.L34:
	.loc 1 399 1 discriminator 1
	mv	a0,a5
	lw	ra,316(sp)
	.cfi_restore 1
	addi	sp,sp,320
	.cfi_def_cfa_offset 0
	jr	ra
	.cfi_endproc
.LFE5:
	.size	pqcrystals_dilithium2_ref_verify, .-pqcrystals_dilithium2_ref_verify
	.align	1
	.globl	pqcrystals_dilithium2_ref_open
	.type	pqcrystals_dilithium2_ref_open, @function
pqcrystals_dilithium2_ref_open:
.LFB6:
	.loc 1 424 1
	.cfi_startproc
	addi	sp,sp,-64
	.cfi_def_cfa_offset 64
	sw	ra,60(sp)
	.cfi_offset 1, -4
	sw	a0,28(sp)
	sw	a1,24(sp)
	sw	a2,20(sp)
	sw	a3,16(sp)
	sw	a4,12(sp)
	sw	a5,8(sp)
	sw	a6,4(sp)
	.loc 1 427 5
	lw	a4,16(sp)
	li	a5,4096
	addi	a5,a5,-1677
	bleu	a4,a5,.L44
	.loc 1 430 17
	lw	a4,16(sp)
	li	a5,-4096
	addi	a5,a5,1676
	add	a4,a4,a5
	.loc 1 430 9
	lw	a5,24(sp)
	sw	a4,0(a5)
	.loc 1 431 6
	lw	a4,20(sp)
	li	a5,4096
	addi	a5,a5,-1676
	add	a2,a4,a5
	lw	a5,24(sp)
	lw	a3,0(a5)
	lw	a6,4(sp)
	lw	a5,8(sp)
	lw	a4,12(sp)
	li	a1,4096
	addi	a1,a1,-1676
	lw	a0,20(sp)
	call	pqcrystals_dilithium2_ref_verify
	mv	a5,a0
	.loc 1 431 5
	bne	a5,zero,.L45
	.loc 1 435 11
	sw	zero,44(sp)
	.loc 1 435 5
	j	.L39
.L40:
	.loc 1 436 41 discriminator 3
	lw	a4,44(sp)
	li	a5,4096
	addi	a5,a5,-1676
	add	a5,a4,a5
	.loc 1 436 16 discriminator 3
	lw	a4,20(sp)
	add	a4,a4,a5
	.loc 1 436 8 discriminator 3
	lw	a3,28(sp)
	lw	a5,44(sp)
	add	a5,a3,a5
	.loc 1 436 16 discriminator 3
	lbu	a4,0(a4)
	.loc 1 436 12 discriminator 3
	sb	a4,0(a5)
	.loc 1 435 27 discriminator 3
	lw	a5,44(sp)
	addi	a5,a5,1
	sw	a5,44(sp)
.L39:
	.loc 1 435 20 discriminator 1
	lw	a5,24(sp)
	lw	a5,0(a5)
	.loc 1 435 5 discriminator 1
	lw	a4,44(sp)
	bltu	a4,a5,.L40
	.loc 1 437 12
	li	a5,0
	j	.L41
.L44:
	.loc 1 428 5
	nop
	j	.L37
.L45:
	.loc 1 432 5
	nop
.L37:
	.loc 1 442 9
	lw	a5,24(sp)
	sw	zero,0(a5)
	.loc 1 443 9
	sw	zero,44(sp)
	.loc 1 443 3
	j	.L42
.L43:
	.loc 1 444 6 discriminator 3
	lw	a4,28(sp)
	lw	a5,44(sp)
	add	a5,a4,a5
	.loc 1 444 10 discriminator 3
	sb	zero,0(a5)
	.loc 1 443 25 discriminator 3
	lw	a5,44(sp)
	addi	a5,a5,1
	sw	a5,44(sp)
.L42:
	.loc 1 443 3 discriminator 1
	lw	a4,44(sp)
	lw	a5,16(sp)
	bltu	a4,a5,.L43
	.loc 1 446 10
	li	a5,-1
.L41:
	.loc 1 447 1
	mv	a0,a5
	lw	ra,60(sp)
	.cfi_restore 1
	addi	sp,sp,64
	.cfi_def_cfa_offset 0
	jr	ra
	.cfi_endproc
.LFE6:
	.size	pqcrystals_dilithium2_ref_open, .-pqcrystals_dilithium2_ref_open
.Letext0:
	.file 2 "include/stdint.h"
	.file 3 "include/stddef.h"
	.file 4 "test_demo/poly.h"
	.file 5 "test_demo/polyvec.h"
	.file 6 "test_demo/fips202.h"