	.file	"polyvec.c"
	.option nopic
	.attribute arch, "rv32i2p0_m2p0_a2p0_c2p0"
	.attribute unaligned_access, 0
	.attribute stack_align, 16
	.text
.Ltext0:
	.cfi_sections	.debug_frame
	.align	1
	.globl	pqcrystals_dilithium2_ref_polyvec_matrix_expand
	.type	pqcrystals_dilithium2_ref_polyvec_matrix_expand, @function
pqcrystals_dilithium2_ref_polyvec_matrix_expand:
.LFB0:
	.file 1 "test_demo/polyvec.c"
	.loc 1 16 94
	.cfi_startproc
	addi	sp,sp,-48
	.cfi_def_cfa_offset 48
	sw	ra,44(sp)
	.cfi_offset 1, -4
	sw	a0,12(sp)
	sw	a1,8(sp)
	.loc 1 19 9
	sw	zero,28(sp)
	.loc 1 19 3
	j	.L2
.L5:
	.loc 1 20 11
	sw	zero,24(sp)
	.loc 1 20 5
	j	.L3
.L4:
	.loc 1 21 50 discriminator 3
	lw	a5,28(sp)
	slli	a5,a5,12
	lw	a4,12(sp)
	add	a4,a4,a5
	.loc 1 21 7 discriminator 3
	lw	a5,24(sp)
	slli	a5,a5,10
	add	a3,a4,a5
	.loc 1 21 70 discriminator 3
	lw	a5,28(sp)
	slli	a5,a5,16
	srli	a5,a5,16
	slli	a5,a5,8
	slli	a4,a5,16
	srli	a4,a4,16
	.loc 1 21 7 discriminator 3
	lw	a5,24(sp)
	slli	a5,a5,16
	srli	a5,a5,16
	add	a5,a4,a5
	slli	a5,a5,16
	srli	a5,a5,16
	mv	a2,a5
	lw	a1,8(sp)
	mv	a0,a3
	call	pqcrystals_dilithium2_ref_poly_uniform
	.loc 1 20 23 discriminator 3
	lw	a5,24(sp)
	addi	a5,a5,1
	sw	a5,24(sp)
.L3:
	.loc 1 20 5 discriminator 1
	lw	a4,24(sp)
	li	a5,3
	bleu	a4,a5,.L4
	.loc 1 19 21 discriminator 2
	lw	a5,28(sp)
	addi	a5,a5,1
	sw	a5,28(sp)
.L2:
	.loc 1 19 3 discriminator 1
	lw	a4,28(sp)
	li	a5,3
	bleu	a4,a5,.L5
	.loc 1 22 1
	nop
	nop
	lw	ra,44(sp)
	.cfi_restore 1
	addi	sp,sp,48
	.cfi_def_cfa_offset 0
	jr	ra
	.cfi_endproc
.LFE0:
	.size	pqcrystals_dilithium2_ref_polyvec_matrix_expand, .-pqcrystals_dilithium2_ref_polyvec_matrix_expand
	.align	1
	.globl	pqcrystals_dilithium2_ref_polyvec_matrix_pointwise_montgomery
	.type	pqcrystals_dilithium2_ref_polyvec_matrix_pointwise_montgomery, @function
pqcrystals_dilithium2_ref_polyvec_matrix_pointwise_montgomery:
.LFB1:
	.loc 1 24 123
	.cfi_startproc
	addi	sp,sp,-48
	.cfi_def_cfa_offset 48
	sw	ra,44(sp)
	.cfi_offset 1, -4
	sw	a0,12(sp)
	sw	a1,8(sp)
	sw	a2,4(sp)
	.loc 1 27 9
	sw	zero,28(sp)
	.loc 1 27 3
	j	.L7
.L8:
	.loc 1 28 5 discriminator 3
	lw	a5,28(sp)
	slli	a5,a5,10
	lw	a4,12(sp)
	add	a3,a4,a5
	.loc 1 28 81 discriminator 3
	lw	a5,28(sp)
	slli	a5,a5,12
	.loc 1 28 5 discriminator 3
	lw	a4,8(sp)
	add	a5,a4,a5
	lw	a2,4(sp)
	mv	a1,a5
	mv	a0,a3
	call	pqcrystals_dilithium2_ref_polyvecl_pointwise_acc_montgomery
	.loc 1 27 21 discriminator 3
	lw	a5,28(sp)
	addi	a5,a5,1
	sw	a5,28(sp)
.L7:
	.loc 1 27 3 discriminator 1
	lw	a4,28(sp)
	li	a5,3
	bleu	a4,a5,.L8
	.loc 1 29 1
	nop
	nop
	lw	ra,44(sp)
	.cfi_restore 1
	addi	sp,sp,48
	.cfi_def_cfa_offset 0
	jr	ra
	.cfi_endproc
.LFE1:
	.size	pqcrystals_dilithium2_ref_polyvec_matrix_pointwise_montgomery, .-pqcrystals_dilithium2_ref_polyvec_matrix_pointwise_montgomery
	.align	1
	.globl	pqcrystals_dilithium2_ref_polyvecl_uniform_eta
	.type	pqcrystals_dilithium2_ref_polyvecl_uniform_eta, @function
pqcrystals_dilithium2_ref_polyvecl_uniform_eta:
.LFB2:
	.loc 1 35 106
	.cfi_startproc
	addi	sp,sp,-48
	.cfi_def_cfa_offset 48
	sw	ra,44(sp)
	.cfi_offset 1, -4
	sw	a0,12(sp)
	sw	a1,8(sp)
	mv	a5,a2
	sh	a5,6(sp)
	.loc 1 38 9
	sw	zero,28(sp)
	.loc 1 38 3
	j	.L10
.L11:
	.loc 1 39 5 discriminator 3
	lw	a5,28(sp)
	slli	a5,a5,10
	lw	a4,12(sp)
	add	a3,a4,a5
	lhu	a5,6(sp)
	addi	a4,a5,1
	sh	a4,6(sp)
	mv	a2,a5
	lw	a1,8(sp)
	mv	a0,a3
	call	pqcrystals_dilithium2_ref_poly_uniform_eta
	.loc 1 38 21 discriminator 3
	lw	a5,28(sp)
	addi	a5,a5,1
	sw	a5,28(sp)
.L10:
	.loc 1 38 3 discriminator 1
	lw	a4,28(sp)
	li	a5,3
	bleu	a4,a5,.L11
	.loc 1 41 1
	nop
	nop
	lw	ra,44(sp)
	.cfi_restore 1
	addi	sp,sp,48
	.cfi_def_cfa_offset 0
	jr	ra
	.cfi_endproc
.LFE2:
	.size	pqcrystals_dilithium2_ref_polyvecl_uniform_eta, .-pqcrystals_dilithium2_ref_polyvecl_uniform_eta
	.align	1
	.globl	pqcrystals_dilithium2_ref_polyvecl_uniform_gamma1
	.type	pqcrystals_dilithium2_ref_polyvecl_uniform_gamma1, @function
pqcrystals_dilithium2_ref_polyvecl_uniform_gamma1:
.LFB3:
	.loc 1 43 109
	.cfi_startproc
	addi	sp,sp,-48
	.cfi_def_cfa_offset 48
	sw	ra,44(sp)
	.cfi_offset 1, -4
	sw	a0,12(sp)
	sw	a1,8(sp)
	mv	a5,a2
	sh	a5,6(sp)
	.loc 1 46 9
	sw	zero,28(sp)
	.loc 1 46 3
	j	.L13
.L14:
	.loc 1 47 5 discriminator 3
	lw	a5,28(sp)
	slli	a5,a5,10
	lw	a4,12(sp)
	add	a3,a4,a5
	lhu	a5,6(sp)
	slli	a5,a5,2
	slli	a4,a5,16
	srli	a4,a4,16
	lw	a5,28(sp)
	slli	a5,a5,16
	srli	a5,a5,16
	add	a5,a4,a5
	slli	a5,a5,16
	srli	a5,a5,16
	mv	a2,a5
	lw	a1,8(sp)
	mv	a0,a3
	call	pqcrystals_dilithium2_ref_poly_uniform_gamma1
	.loc 1 46 21 discriminator 3
	lw	a5,28(sp)
	addi	a5,a5,1
	sw	a5,28(sp)
.L13:
	.loc 1 46 3 discriminator 1
	lw	a4,28(sp)
	li	a5,3
	bleu	a4,a5,.L14
	.loc 1 48 1
	nop
	nop
	lw	ra,44(sp)
	.cfi_restore 1
	addi	sp,sp,48
	.cfi_def_cfa_offset 0
	jr	ra
	.cfi_endproc
.LFE3:
	.size	pqcrystals_dilithium2_ref_polyvecl_uniform_gamma1, .-pqcrystals_dilithium2_ref_polyvecl_uniform_gamma1
	.align	1
	.globl	pqcrystals_dilithium2_ref_polyvecl_reduce
	.type	pqcrystals_dilithium2_ref_polyvecl_reduce, @function
pqcrystals_dilithium2_ref_polyvecl_reduce:
.LFB4:
	.loc 1 50 61
	.cfi_startproc
	addi	sp,sp,-48
	.cfi_def_cfa_offset 48
	sw	ra,44(sp)
	.cfi_offset 1, -4
	sw	a0,12(sp)
	.loc 1 53 9
	sw	zero,28(sp)
	.loc 1 53 3
	j	.L16
.L17:
	.loc 1 54 5 discriminator 3
	lw	a5,28(sp)
	slli	a5,a5,10
	lw	a4,12(sp)
	add	a5,a4,a5
	mv	a0,a5
	call	pqcrystals_dilithium2_ref_poly_reduce
	.loc 1 53 21 discriminator 3
	lw	a5,28(sp)
	addi	a5,a5,1
	sw	a5,28(sp)
.L16:
	.loc 1 53 3 discriminator 1
	lw	a4,28(sp)
	li	a5,3
	bleu	a4,a5,.L17
	.loc 1 55 1
	nop
	nop
	lw	ra,44(sp)
	.cfi_restore 1
	addi	sp,sp,48
	.cfi_def_cfa_offset 0
	jr	ra
	.cfi_endproc
.LFE4:
	.size	pqcrystals_dilithium2_ref_polyvecl_reduce, .-pqcrystals_dilithium2_ref_polyvecl_reduce
	.align	1
	.globl	pqcrystals_dilithium2_ref_polyvecl_add
	.type	pqcrystals_dilithium2_ref_polyvecl_add, @function
pqcrystals_dilithium2_ref_polyvecl_add:
.LFB5:
	.loc 1 67 96
	.cfi_startproc
	addi	sp,sp,-48
	.cfi_def_cfa_offset 48
	sw	ra,44(sp)
	.cfi_offset 1, -4
	sw	a0,12(sp)
	sw	a1,8(sp)
	sw	a2,4(sp)
	.loc 1 70 9
	sw	zero,28(sp)
	.loc 1 70 3
	j	.L19
.L20:
	.loc 1 71 5 discriminator 3
	lw	a5,28(sp)
	slli	a5,a5,10
	lw	a4,12(sp)
	add	a3,a4,a5
	lw	a5,28(sp)
	slli	a5,a5,10
	lw	a4,8(sp)
	add	a1,a4,a5
	lw	a5,28(sp)
	slli	a5,a5,10
	lw	a4,4(sp)
	add	a5,a4,a5
	mv	a2,a5
	mv	a0,a3
	call	pqcrystals_dilithium2_ref_poly_add
	.loc 1 70 21 discriminator 3
	lw	a5,28(sp)
	addi	a5,a5,1
	sw	a5,28(sp)
.L19:
	.loc 1 70 3 discriminator 1
	lw	a4,28(sp)
	li	a5,3
	bleu	a4,a5,.L20
	.loc 1 72 1
	nop
	nop
	lw	ra,44(sp)
	.cfi_restore 1
	addi	sp,sp,48
	.cfi_def_cfa_offset 0
	jr	ra
	.cfi_endproc
.LFE5:
	.size	pqcrystals_dilithium2_ref_polyvecl_add, .-pqcrystals_dilithium2_ref_polyvecl_add
	.align	1
	.globl	pqcrystals_dilithium2_ref_polyvecl_ntt
	.type	pqcrystals_dilithium2_ref_polyvecl_ntt, @function
pqcrystals_dilithium2_ref_polyvecl_ntt:
.LFB6:
	.loc 1 82 58
	.cfi_startproc
	addi	sp,sp,-48
	.cfi_def_cfa_offset 48
	sw	ra,44(sp)
	.cfi_offset 1, -4
	sw	a0,12(sp)
	.loc 1 85 9
	sw	zero,28(sp)
	.loc 1 85 3
	j	.L22
.L23:
	.loc 1 86 5 discriminator 3
	lw	a5,28(sp)
	slli	a5,a5,10
	lw	a4,12(sp)
	add	a5,a4,a5
	mv	a0,a5
	call	pqcrystals_dilithium2_ref_poly_ntt
	.loc 1 85 21 discriminator 3
	lw	a5,28(sp)
	addi	a5,a5,1
	sw	a5,28(sp)
.L22:
	.loc 1 85 3 discriminator 1
	lw	a4,28(sp)
	li	a5,3
	bleu	a4,a5,.L23
	.loc 1 88 1
	nop
	nop
	lw	ra,44(sp)
	.cfi_restore 1
	addi	sp,sp,48
	.cfi_def_cfa_offset 0
	jr	ra
	.cfi_endproc
.LFE6:
	.size	pqcrystals_dilithium2_ref_polyvecl_ntt, .-pqcrystals_dilithium2_ref_polyvecl_ntt
	.align	1
	.globl	pqcrystals_dilithium2_ref_polyvecl_invntt_tomont
	.type	pqcrystals_dilithium2_ref_polyvecl_invntt_tomont, @function
pqcrystals_dilithium2_ref_polyvecl_invntt_tomont:
.LFB7:
	.loc 1 90 68
	.cfi_startproc
	addi	sp,sp,-48
	.cfi_def_cfa_offset 48
	sw	ra,44(sp)
	.cfi_offset 1, -4
	sw	a0,12(sp)
	.loc 1 93 9
	sw	zero,28(sp)
	.loc 1 93 3
	j	.L25
.L26:
	.loc 1 94 5 discriminator 3
	lw	a5,28(sp)
	slli	a5,a5,10
	lw	a4,12(sp)
	add	a5,a4,a5
	mv	a0,a5
	call	pqcrystals_dilithium2_ref_poly_invntt_tomont
	.loc 1 93 21 discriminator 3
	lw	a5,28(sp)
	addi	a5,a5,1
	sw	a5,28(sp)
.L25:
	.loc 1 93 3 discriminator 1
	lw	a4,28(sp)
	li	a5,3
	bleu	a4,a5,.L26
	.loc 1 95 1
	nop
	nop
	lw	ra,44(sp)
	.cfi_restore 1
	addi	sp,sp,48
	.cfi_def_cfa_offset 0
	jr	ra
	.cfi_endproc
.LFE7:
	.size	pqcrystals_dilithium2_ref_polyvecl_invntt_tomont, .-pqcrystals_dilithium2_ref_polyvecl_invntt_tomont
	.align	1
	.globl	pqcrystals_dilithium2_ref_polyvecl_pointwise_poly_montgomery
	.type	pqcrystals_dilithium2_ref_polyvecl_pointwise_poly_montgomery, @function
pqcrystals_dilithium2_ref_polyvecl_pointwise_poly_montgomery:
.LFB8:
	.loc 1 97 114
	.cfi_startproc
	addi	sp,sp,-48
	.cfi_def_cfa_offset 48
	sw	ra,44(sp)
	.cfi_offset 1, -4
	sw	a0,12(sp)
	sw	a1,8(sp)
	sw	a2,4(sp)
	.loc 1 100 9
	sw	zero,28(sp)
	.loc 1 100 3
	j	.L28
.L29:
	.loc 1 101 5 discriminator 3
	lw	a5,28(sp)
	slli	a5,a5,10
	lw	a4,12(sp)
	add	a3,a4,a5
	lw	a5,28(sp)
	slli	a5,a5,10
	lw	a4,4(sp)
	add	a5,a4,a5
	mv	a2,a5
	lw	a1,8(sp)
	mv	a0,a3
	call	pqcrystals_dilithium2_ref_poly_pointwise_montgomery
	.loc 1 100 21 discriminator 3
	lw	a5,28(sp)
	addi	a5,a5,1
	sw	a5,28(sp)
.L28:
	.loc 1 100 3 discriminator 1
	lw	a4,28(sp)
	li	a5,3
	bleu	a4,a5,.L29
	.loc 1 102 1
	nop
	nop
	lw	ra,44(sp)
	.cfi_restore 1
	addi	sp,sp,48
	.cfi_def_cfa_offset 0
	jr	ra
	.cfi_endproc
.LFE8:
	.size	pqcrystals_dilithium2_ref_polyvecl_pointwise_poly_montgomery, .-pqcrystals_dilithium2_ref_polyvecl_pointwise_poly_montgomery
	.align	1
	.globl	pqcrystals_dilithium2_ref_polyvecl_pointwise_acc_montgomery
	.type	pqcrystals_dilithium2_ref_polyvecl_pointwise_acc_montgomery, @function
pqcrystals_dilithium2_ref_polyvecl_pointwise_acc_montgomery:
.LFB9:
	.loc 1 118 1
	.cfi_startproc
	addi	sp,sp,-1072
	.cfi_def_cfa_offset 1072
	sw	ra,1068(sp)
	.cfi_offset 1, -4
	sw	a0,12(sp)
	sw	a1,8(sp)
	sw	a2,4(sp)
	.loc 1 122 3
	lw	a5,8(sp)
	lw	a4,4(sp)
	mv	a2,a4
	mv	a1,a5
	lw	a0,12(sp)
	call	pqcrystals_dilithium2_ref_poly_pointwise_montgomery
	.loc 1 123 9
	li	a5,1
	sw	a5,1052(sp)
	.loc 1 123 3
	j	.L31
.L32:
	.loc 1 124 5 discriminator 3
	lw	a5,1052(sp)
	slli	a5,a5,10
	lw	a4,8(sp)
	add	a3,a4,a5
	lw	a5,1052(sp)
	slli	a5,a5,10
	lw	a4,4(sp)
	add	a4,a4,a5
	addi	a5,sp,28
	mv	a2,a4
	mv	a1,a3
	mv	a0,a5
	call	pqcrystals_dilithium2_ref_poly_pointwise_montgomery
	.loc 1 125 5 discriminator 3
	addi	a5,sp,28
	mv	a2,a5
	lw	a1,12(sp)
	lw	a0,12(sp)
	call	pqcrystals_dilithium2_ref_poly_add
	.loc 1 123 21 discriminator 3
	lw	a5,1052(sp)
	addi	a5,a5,1
	sw	a5,1052(sp)
.L31:
	.loc 1 123 3 discriminator 1
	lw	a4,1052(sp)
	li	a5,3
	bleu	a4,a5,.L32
	.loc 1 127 1
	nop
	nop
	lw	ra,1068(sp)
	.cfi_restore 1
	addi	sp,sp,1072
	.cfi_def_cfa_offset 0
	jr	ra
	.cfi_endproc
.LFE9:
	.size	pqcrystals_dilithium2_ref_polyvecl_pointwise_acc_montgomery, .-pqcrystals_dilithium2_ref_polyvecl_pointwise_acc_montgomery
	.align	1
	.globl	pqcrystals_dilithium2_ref_polyvecl_chknorm
	.type	pqcrystals_dilithium2_ref_polyvecl_chknorm, @function
pqcrystals_dilithium2_ref_polyvecl_chknorm:
.LFB10:
	.loc 1 141 82
	.cfi_startproc
	addi	sp,sp,-48
	.cfi_def_cfa_offset 48
	sw	ra,44(sp)
	.cfi_offset 1, -4
	sw	a0,12(sp)
	sw	a1,8(sp)
	.loc 1 144 9
	sw	zero,28(sp)
	.loc 1 144 3
	j	.L34
.L37:
	.loc 1 145 8
	lw	a5,28(sp)
	slli	a5,a5,10
	lw	a4,12(sp)
	add	a5,a4,a5
	lw	a1,8(sp)
	mv	a0,a5
	call	pqcrystals_dilithium2_ref_poly_chknorm
	mv	a5,a0
	.loc 1 145 7
	beq	a5,zero,.L35
	.loc 1 146 14
	li	a5,1
	j	.L36
.L35:
	.loc 1 144 21 discriminator 2
	lw	a5,28(sp)
	addi	a5,a5,1
	sw	a5,28(sp)
.L34:
	.loc 1 144 3 discriminator 1
	lw	a4,28(sp)
	li	a5,3
	bleu	a4,a5,.L37
	.loc 1 148 10
	li	a5,0
.L36:
	.loc 1 149 1
	mv	a0,a5
	lw	ra,44(sp)
	.cfi_restore 1
	addi	sp,sp,48
	.cfi_def_cfa_offset 0
	jr	ra
	.cfi_endproc
.LFE10:
	.size	pqcrystals_dilithium2_ref_polyvecl_chknorm, .-pqcrystals_dilithium2_ref_polyvecl_chknorm
	.align	1
	.globl	pqcrystals_dilithium2_ref_polyveck_uniform_eta
	.type	pqcrystals_dilithium2_ref_polyveck_uniform_eta, @function
pqcrystals_dilithium2_ref_polyveck_uniform_eta:
.LFB11:
	.loc 1 155 106
	.cfi_startproc
	addi	sp,sp,-48
	.cfi_def_cfa_offset 48
	sw	ra,44(sp)
	.cfi_offset 1, -4
	sw	a0,12(sp)
	sw	a1,8(sp)
	mv	a5,a2
	sh	a5,6(sp)
	.loc 1 158 9
	sw	zero,28(sp)
	.loc 1 158 3
	j	.L39
.L40:
	.loc 1 159 5 discriminator 3
	lw	a5,28(sp)
	slli	a5,a5,10
	lw	a4,12(sp)
	add	a3,a4,a5
	lhu	a5,6(sp)
	addi	a4,a5,1
	sh	a4,6(sp)
	mv	a2,a5
	lw	a1,8(sp)
	mv	a0,a3
	call	pqcrystals_dilithium2_ref_poly_uniform_eta
	.loc 1 158 21 discriminator 3
	lw	a5,28(sp)
	addi	a5,a5,1
	sw	a5,28(sp)
.L39:
	.loc 1 158 3 discriminator 1
	lw	a4,28(sp)
	li	a5,3
	bleu	a4,a5,.L40
	.loc 1 160 1
	nop
	nop
	lw	ra,44(sp)
	.cfi_restore 1
	addi	sp,sp,48
	.cfi_def_cfa_offset 0
	jr	ra
	.cfi_endproc
.LFE11:
	.size	pqcrystals_dilithium2_ref_polyveck_uniform_eta, .-pqcrystals_dilithium2_ref_polyveck_uniform_eta
	.align	1
	.globl	pqcrystals_dilithium2_ref_polyveck_reduce
	.type	pqcrystals_dilithium2_ref_polyveck_reduce, @function
pqcrystals_dilithium2_ref_polyveck_reduce:
.LFB12:
	.loc 1 170 61
	.cfi_startproc
	addi	sp,sp,-48
	.cfi_def_cfa_offset 48
	sw	ra,44(sp)
	.cfi_offset 1, -4
	sw	a0,12(sp)
	.loc 1 173 9
	sw	zero,28(sp)
	.loc 1 173 3
	j	.L42
.L43:
	.loc 1 174 5 discriminator 3
	lw	a5,28(sp)
	slli	a5,a5,10
	lw	a4,12(sp)
	add	a5,a4,a5
	mv	a0,a5
	call	pqcrystals_dilithium2_ref_poly_reduce
	.loc 1 173 21 discriminator 3
	lw	a5,28(sp)
	addi	a5,a5,1
	sw	a5,28(sp)
.L42:
	.loc 1 173 3 discriminator 1
	lw	a4,28(sp)
	li	a5,3
	bleu	a4,a5,.L43
	.loc 1 175 1
	nop
	nop
	lw	ra,44(sp)
	.cfi_restore 1
	addi	sp,sp,48
	.cfi_def_cfa_offset 0
	jr	ra
	.cfi_endproc
.LFE12:
	.size	pqcrystals_dilithium2_ref_polyveck_reduce, .-pqcrystals_dilithium2_ref_polyveck_reduce
	.align	1
	.globl	pqcrystals_dilithium2_ref_polyveck_caddq
	.type	pqcrystals_dilithium2_ref_polyveck_caddq, @function
pqcrystals_dilithium2_ref_polyveck_caddq:
.LFB13:
	.loc 1 185 60
	.cfi_startproc
	addi	sp,sp,-48
	.cfi_def_cfa_offset 48
	sw	ra,44(sp)
	.cfi_offset 1, -4
	sw	a0,12(sp)
	.loc 1 188 9
	sw	zero,28(sp)
	.loc 1 188 3
	j	.L45
.L46:
	.loc 1 189 5 discriminator 3
	lw	a5,28(sp)
	slli	a5,a5,10
	lw	a4,12(sp)
	add	a5,a4,a5
	mv	a0,a5
	call	pqcrystals_dilithium2_ref_poly_caddq
	.loc 1 188 21 discriminator 3
	lw	a5,28(sp)
	addi	a5,a5,1
	sw	a5,28(sp)
.L45:
	.loc 1 188 3 discriminator 1
	lw	a4,28(sp)
	li	a5,3
	bleu	a4,a5,.L46
	.loc 1 190 1
	nop
	nop
	lw	ra,44(sp)
	.cfi_restore 1
	addi	sp,sp,48
	.cfi_def_cfa_offset 0
	jr	ra
	.cfi_endproc
.LFE13:
	.size	pqcrystals_dilithium2_ref_polyveck_caddq, .-pqcrystals_dilithium2_ref_polyveck_caddq
	.align	1
	.globl	pqcrystals_dilithium2_ref_polyveck_add
	.type	pqcrystals_dilithium2_ref_polyveck_add, @function
pqcrystals_dilithium2_ref_polyveck_add:
.LFB14:
	.loc 1 202 96
	.cfi_startproc
	addi	sp,sp,-48
	.cfi_def_cfa_offset 48
	sw	ra,44(sp)
	.cfi_offset 1, -4
	sw	a0,12(sp)
	sw	a1,8(sp)
	sw	a2,4(sp)
	.loc 1 205 9
	sw	zero,28(sp)
	.loc 1 205 3
	j	.L48
.L49:
	.loc 1 206 5 discriminator 3
	lw	a5,28(sp)
	slli	a5,a5,10
	lw	a4,12(sp)
	add	a3,a4,a5
	lw	a5,28(sp)
	slli	a5,a5,10
	lw	a4,8(sp)
	add	a1,a4,a5
	lw	a5,28(sp)
	slli	a5,a5,10
	lw	a4,4(sp)
	add	a5,a4,a5
	mv	a2,a5
	mv	a0,a3
	call	pqcrystals_dilithium2_ref_poly_add
	.loc 1 205 21 discriminator 3
	lw	a5,28(sp)
	addi	a5,a5,1
	sw	a5,28(sp)
.L48:
	.loc 1 205 3 discriminator 1
	lw	a4,28(sp)
	li	a5,3
	bleu	a4,a5,.L49
	.loc 1 207 1
	nop
	nop
	lw	ra,44(sp)
	.cfi_restore 1
	addi	sp,sp,48
	.cfi_def_cfa_offset 0
	jr	ra
	.cfi_endproc
.LFE14:
	.size	pqcrystals_dilithium2_ref_polyveck_add, .-pqcrystals_dilithium2_ref_polyveck_add
	.align	1
	.globl	pqcrystals_dilithium2_ref_polyveck_sub
	.type	pqcrystals_dilithium2_ref_polyveck_sub, @function
pqcrystals_dilithium2_ref_polyveck_sub:
.LFB15:
	.loc 1 220 96
	.cfi_startproc
	addi	sp,sp,-48
	.cfi_def_cfa_offset 48
	sw	ra,44(sp)
	.cfi_offset 1, -4
	sw	a0,12(sp)
	sw	a1,8(sp)
	sw	a2,4(sp)
	.loc 1 223 9
	sw	zero,28(sp)
	.loc 1 223 3
	j	.L51
.L52:
	.loc 1 224 5 discriminator 3
	lw	a5,28(sp)
	slli	a5,a5,10
	lw	a4,12(sp)
	add	a3,a4,a5
	lw	a5,28(sp)
	slli	a5,a5,10
	lw	a4,8(sp)
	add	a1,a4,a5
	lw	a5,28(sp)
	slli	a5,a5,10
	lw	a4,4(sp)
	add	a5,a4,a5
	mv	a2,a5
	mv	a0,a3
	call	pqcrystals_dilithium2_ref_poly_sub
	.loc 1 223 21 discriminator 3
	lw	a5,28(sp)
	addi	a5,a5,1
	sw	a5,28(sp)
.L51:
	.loc 1 223 3 discriminator 1
	lw	a4,28(sp)
	li	a5,3
	bleu	a4,a5,.L52
	.loc 1 225 1
	nop
	nop
	lw	ra,44(sp)
	.cfi_restore 1
	addi	sp,sp,48
	.cfi_def_cfa_offset 0
	jr	ra
	.cfi_endproc
.LFE15:
	.size	pqcrystals_dilithium2_ref_polyveck_sub, .-pqcrystals_dilithium2_ref_polyveck_sub
	.align	1
	.globl	pqcrystals_dilithium2_ref_polyveck_shiftl
	.type	pqcrystals_dilithium2_ref_polyveck_shiftl, @function
pqcrystals_dilithium2_ref_polyveck_shiftl:
.LFB16:
	.loc 1 235 61
	.cfi_startproc
	addi	sp,sp,-48
	.cfi_def_cfa_offset 48
	sw	ra,44(sp)
	.cfi_offset 1, -4
	sw	a0,12(sp)
	.loc 1 238 9
	sw	zero,28(sp)
	.loc 1 238 3
	j	.L54
.L55:
	.loc 1 239 5 discriminator 3
	lw	a5,28(sp)
	slli	a5,a5,10
	lw	a4,12(sp)
	add	a5,a4,a5
	mv	a0,a5
	call	pqcrystals_dilithium2_ref_poly_shiftl
	.loc 1 238 21 discriminator 3
	lw	a5,28(sp)
	addi	a5,a5,1
	sw	a5,28(sp)
.L54:
	.loc 1 238 3 discriminator 1
	lw	a4,28(sp)
	li	a5,3
	bleu	a4,a5,.L55
	.loc 1 240 1
	nop
	nop
	lw	ra,44(sp)
	.cfi_restore 1
	addi	sp,sp,48
	.cfi_def_cfa_offset 0
	jr	ra
	.cfi_endproc
.LFE16:
	.size	pqcrystals_dilithium2_ref_polyveck_shiftl, .-pqcrystals_dilithium2_ref_polyveck_shiftl
	.align	1
	.globl	pqcrystals_dilithium2_ref_polyveck_ntt
	.type	pqcrystals_dilithium2_ref_polyveck_ntt, @function
pqcrystals_dilithium2_ref_polyveck_ntt:
.LFB17:
	.loc 1 250 58
	.cfi_startproc
	addi	sp,sp,-48
	.cfi_def_cfa_offset 48
	sw	ra,44(sp)
	.cfi_offset 1, -4
	sw	a0,12(sp)
	.loc 1 253 9
	sw	zero,28(sp)
	.loc 1 253 3
	j	.L57
.L58:
	.loc 1 254 5 discriminator 3
	lw	a5,28(sp)
	slli	a5,a5,10
	lw	a4,12(sp)
	add	a5,a4,a5
	mv	a0,a5
	call	pqcrystals_dilithium2_ref_poly_ntt
	.loc 1 253 21 discriminator 3
	lw	a5,28(sp)
	addi	a5,a5,1
	sw	a5,28(sp)
.L57:
	.loc 1 253 3 discriminator 1
	lw	a4,28(sp)
	li	a5,3
	bleu	a4,a5,.L58
	.loc 1 255 1
	nop
	nop
	lw	ra,44(sp)
	.cfi_restore 1
	addi	sp,sp,48
	.cfi_def_cfa_offset 0
	jr	ra
	.cfi_endproc
.LFE17:
	.size	pqcrystals_dilithium2_ref_polyveck_ntt, .-pqcrystals_dilithium2_ref_polyveck_ntt
	.align	1
	.globl	pqcrystals_dilithium2_ref_polyveck_invntt_tomont
	.type	pqcrystals_dilithium2_ref_polyveck_invntt_tomont, @function
pqcrystals_dilithium2_ref_polyveck_invntt_tomont:
.LFB18:
	.loc 1 266 68
	.cfi_startproc
	addi	sp,sp,-48
	.cfi_def_cfa_offset 48
	sw	ra,44(sp)
	.cfi_offset 1, -4
	sw	a0,12(sp)
	.loc 1 269 9
	sw	zero,28(sp)
	.loc 1 269 3
	j	.L60
.L61:
	.loc 1 270 5 discriminator 3
	lw	a5,28(sp)
	slli	a5,a5,10
	lw	a4,12(sp)
	add	a5,a4,a5
	mv	a0,a5
	call	pqcrystals_dilithium2_ref_poly_invntt_tomont
	.loc 1 269 21 discriminator 3
	lw	a5,28(sp)
	addi	a5,a5,1
	sw	a5,28(sp)
.L60:
	.loc 1 269 3 discriminator 1
	lw	a4,28(sp)
	li	a5,3
	bleu	a4,a5,.L61
	.loc 1 271 1
	nop
	nop
	lw	ra,44(sp)
	.cfi_restore 1
	addi	sp,sp,48
	.cfi_def_cfa_offset 0
	jr	ra
	.cfi_endproc
.LFE18:
	.size	pqcrystals_dilithium2_ref_polyveck_invntt_tomont, .-pqcrystals_dilithium2_ref_polyveck_invntt_tomont
	.align	1
	.globl	pqcrystals_dilithium2_ref_polyveck_pointwise_poly_montgomery
	.type	pqcrystals_dilithium2_ref_polyveck_pointwise_poly_montgomery, @function
pqcrystals_dilithium2_ref_polyveck_pointwise_poly_montgomery:
.LFB19:
	.loc 1 273 114
	.cfi_startproc
	addi	sp,sp,-48
	.cfi_def_cfa_offset 48
	sw	ra,44(sp)
	.cfi_offset 1, -4
	sw	a0,12(sp)
	sw	a1,8(sp)
	sw	a2,4(sp)
	.loc 1 276 9
	sw	zero,28(sp)
	.loc 1 276 3
	j	.L63
.L64:
	.loc 1 277 5 discriminator 3
	lw	a5,28(sp)
	slli	a5,a5,10
	lw	a4,12(sp)
	add	a3,a4,a5
	lw	a5,28(sp)
	slli	a5,a5,10
	lw	a4,4(sp)
	add	a5,a4,a5
	mv	a2,a5
	lw	a1,8(sp)
	mv	a0,a3
	call	pqcrystals_dilithium2_ref_poly_pointwise_montgomery
	.loc 1 276 21 discriminator 3
	lw	a5,28(sp)
	addi	a5,a5,1
	sw	a5,28(sp)
.L63:
	.loc 1 276 3 discriminator 1
	lw	a4,28(sp)
	li	a5,3
	bleu	a4,a5,.L64
	.loc 1 278 1
	nop
	nop
	lw	ra,44(sp)
	.cfi_restore 1
	addi	sp,sp,48
	.cfi_def_cfa_offset 0
	jr	ra
	.cfi_endproc
.LFE19:
	.size	pqcrystals_dilithium2_ref_polyveck_pointwise_poly_montgomery, .-pqcrystals_dilithium2_ref_polyveck_pointwise_poly_montgomery
	.align	1
	.globl	pqcrystals_dilithium2_ref_polyveck_chknorm
	.type	pqcrystals_dilithium2_ref_polyveck_chknorm, @function
pqcrystals_dilithium2_ref_polyveck_chknorm:
.LFB20:
	.loc 1 293 82
	.cfi_startproc
	addi	sp,sp,-48
	.cfi_def_cfa_offset 48
	sw	ra,44(sp)
	.cfi_offset 1, -4
	sw	a0,12(sp)
	sw	a1,8(sp)
	.loc 1 296 9
	sw	zero,28(sp)
	.loc 1 296 3
	j	.L66
.L69:
	.loc 1 297 8
	lw	a5,28(sp)
	slli	a5,a5,10
	lw	a4,12(sp)
	add	a5,a4,a5
	lw	a1,8(sp)
	mv	a0,a5
	call	pqcrystals_dilithium2_ref_poly_chknorm
	mv	a5,a0
	.loc 1 297 7
	beq	a5,zero,.L67
	.loc 1 298 14
	li	a5,1
	j	.L68
.L67:
	.loc 1 296 21 discriminator 2
	lw	a5,28(sp)
	addi	a5,a5,1
	sw	a5,28(sp)
.L66:
	.loc 1 296 3 discriminator 1
	lw	a4,28(sp)
	li	a5,3
	bleu	a4,a5,.L69
	.loc 1 300 10
	li	a5,0
.L68:
	.loc 1 301 1
	mv	a0,a5
	lw	ra,44(sp)
	.cfi_restore 1
	addi	sp,sp,48
	.cfi_def_cfa_offset 0
	jr	ra
	.cfi_endproc
.LFE20:
	.size	pqcrystals_dilithium2_ref_polyveck_chknorm, .-pqcrystals_dilithium2_ref_polyveck_chknorm
	.align	1
	.globl	pqcrystals_dilithium2_ref_polyveck_power2round
	.type	pqcrystals_dilithium2_ref_polyveck_power2round, @function
pqcrystals_dilithium2_ref_polyveck_power2round:
.LFB21:
	.loc 1 317 100
	.cfi_startproc
	addi	sp,sp,-48
	.cfi_def_cfa_offset 48
	sw	ra,44(sp)
	.cfi_offset 1, -4
	sw	a0,12(sp)
	sw	a1,8(sp)
	sw	a2,4(sp)
	.loc 1 320 9
	sw	zero,28(sp)
	.loc 1 320 3
	j	.L71
.L72:
	.loc 1 321 5 discriminator 3
	lw	a5,28(sp)
	slli	a5,a5,10
	lw	a4,12(sp)
	add	a3,a4,a5
	lw	a5,28(sp)
	slli	a5,a5,10
	lw	a4,8(sp)
	add	a1,a4,a5
	lw	a5,28(sp)
	slli	a5,a5,10
	lw	a4,4(sp)
	add	a5,a4,a5
	mv	a2,a5
	mv	a0,a3
	call	pqcrystals_dilithium2_ref_poly_power2round
	.loc 1 320 21 discriminator 3
	lw	a5,28(sp)
	addi	a5,a5,1
	sw	a5,28(sp)
.L71:
	.loc 1 320 3 discriminator 1
	lw	a4,28(sp)
	li	a5,3
	bleu	a4,a5,.L72
	.loc 1 322 1
	nop
	nop
	lw	ra,44(sp)
	.cfi_restore 1
	addi	sp,sp,48
	.cfi_def_cfa_offset 0
	jr	ra
	.cfi_endproc
.LFE21:
	.size	pqcrystals_dilithium2_ref_polyveck_power2round, .-pqcrystals_dilithium2_ref_polyveck_power2round
	.align	1
	.globl	pqcrystals_dilithium2_ref_polyveck_decompose
	.type	pqcrystals_dilithium2_ref_polyveck_decompose, @function
pqcrystals_dilithium2_ref_polyveck_decompose:
.LFB22:
	.loc 1 339 98
	.cfi_startproc
	addi	sp,sp,-48
	.cfi_def_cfa_offset 48
	sw	ra,44(sp)
	.cfi_offset 1, -4
	sw	a0,12(sp)
	sw	a1,8(sp)
	sw	a2,4(sp)
	.loc 1 342 9
	sw	zero,28(sp)
	.loc 1 342 3
	j	.L74
.L75:
	.loc 1 343 5 discriminator 3
	lw	a5,28(sp)
	slli	a5,a5,10
	lw	a4,12(sp)
	add	a3,a4,a5
	lw	a5,28(sp)
	slli	a5,a5,10
	lw	a4,8(sp)
	add	a1,a4,a5
	lw	a5,28(sp)
	slli	a5,a5,10
	lw	a4,4(sp)
	add	a5,a4,a5
	mv	a2,a5
	mv	a0,a3
	call	pqcrystals_dilithium2_ref_poly_decompose
	.loc 1 342 21 discriminator 3
	lw	a5,28(sp)
	addi	a5,a5,1
	sw	a5,28(sp)
.L74:
	.loc 1 342 3 discriminator 1
	lw	a4,28(sp)
	li	a5,3
	bleu	a4,a5,.L75
	.loc 1 344 1
	nop
	nop
	lw	ra,44(sp)
	.cfi_restore 1
	addi	sp,sp,48
	.cfi_def_cfa_offset 0
	jr	ra
	.cfi_endproc
.LFE22:
	.size	pqcrystals_dilithium2_ref_polyveck_decompose, .-pqcrystals_dilithium2_ref_polyveck_decompose
	.align	1
	.globl	pqcrystals_dilithium2_ref_polyveck_make_hint
	.type	pqcrystals_dilithium2_ref_polyveck_make_hint, @function
pqcrystals_dilithium2_ref_polyveck_make_hint:
.LFB23:
	.loc 1 360 1
	.cfi_startproc
	addi	sp,sp,-48
	.cfi_def_cfa_offset 48
	sw	ra,44(sp)
	.cfi_offset 1, -4
	sw	a0,12(sp)
	sw	a1,8(sp)
	sw	a2,4(sp)
	.loc 1 361 19
	sw	zero,24(sp)
	.loc 1 363 9
	sw	zero,28(sp)
	.loc 1 363 3
	j	.L77
.L78:
	.loc 1 364 10 discriminator 3
	lw	a5,28(sp)
	slli	a5,a5,10
	lw	a4,12(sp)
	add	a3,a4,a5
	lw	a5,28(sp)
	slli	a5,a5,10
	lw	a4,8(sp)
	add	a1,a4,a5
	lw	a5,28(sp)
	slli	a5,a5,10
	lw	a4,4(sp)
	add	a5,a4,a5
	mv	a2,a5
	mv	a0,a3
	call	pqcrystals_dilithium2_ref_poly_make_hint
	mv	a4,a0
	.loc 1 364 7 discriminator 3
	lw	a5,24(sp)
	add	a5,a5,a4
	sw	a5,24(sp)
	.loc 1 363 21 discriminator 3
	lw	a5,28(sp)
	addi	a5,a5,1
	sw	a5,28(sp)
.L77:
	.loc 1 363 3 discriminator 1
	lw	a4,28(sp)
	li	a5,3
	bleu	a4,a5,.L78
	.loc 1 366 10
	lw	a5,24(sp)
	.loc 1 367 1
	mv	a0,a5
	lw	ra,44(sp)
	.cfi_restore 1
	addi	sp,sp,48
	.cfi_def_cfa_offset 0
	jr	ra
	.cfi_endproc
.LFE23:
	.size	pqcrystals_dilithium2_ref_polyveck_make_hint, .-pqcrystals_dilithium2_ref_polyveck_make_hint
	.align	1
	.globl	pqcrystals_dilithium2_ref_polyveck_use_hint
	.type	pqcrystals_dilithium2_ref_polyveck_use_hint, @function
pqcrystals_dilithium2_ref_polyveck_use_hint:
.LFB24:
	.loc 1 379 101
	.cfi_startproc
	addi	sp,sp,-48
	.cfi_def_cfa_offset 48
	sw	ra,44(sp)
	.cfi_offset 1, -4
	sw	a0,12(sp)
	sw	a1,8(sp)
	sw	a2,4(sp)
	.loc 1 382 9
	sw	zero,28(sp)
	.loc 1 382 3
	j	.L81
.L82:
	.loc 1 383 5 discriminator 3
	lw	a5,28(sp)
	slli	a5,a5,10
	lw	a4,12(sp)
	add	a3,a4,a5
	lw	a5,28(sp)
	slli	a5,a5,10
	lw	a4,8(sp)
	add	a1,a4,a5
	lw	a5,28(sp)
	slli	a5,a5,10
	lw	a4,4(sp)
	add	a5,a4,a5
	mv	a2,a5
	mv	a0,a3
	call	pqcrystals_dilithium2_ref_poly_use_hint
	.loc 1 382 21 discriminator 3
	lw	a5,28(sp)
	addi	a5,a5,1
	sw	a5,28(sp)
.L81:
	.loc 1 382 3 discriminator 1
	lw	a4,28(sp)
	li	a5,3
	bleu	a4,a5,.L82
	.loc 1 384 1
	nop
	nop
	lw	ra,44(sp)
	.cfi_restore 1
	addi	sp,sp,48
	.cfi_def_cfa_offset 0
	jr	ra
	.cfi_endproc
.LFE24:
	.size	pqcrystals_dilithium2_ref_polyveck_use_hint, .-pqcrystals_dilithium2_ref_polyveck_use_hint
	.align	1
	.globl	pqcrystals_dilithium2_ref_polyveck_pack_w1
	.type	pqcrystals_dilithium2_ref_polyveck_pack_w1, @function
pqcrystals_dilithium2_ref_polyveck_pack_w1:
.LFB25:
	.loc 1 386 87
	.cfi_startproc
	addi	sp,sp,-48
	.cfi_def_cfa_offset 48
	sw	ra,44(sp)
	.cfi_offset 1, -4
	sw	a0,12(sp)
	sw	a1,8(sp)
	.loc 1 389 9
	sw	zero,28(sp)
	.loc 1 389 3
	j	.L84
.L85:
	.loc 1 390 47 discriminator 3
	lw	a4,28(sp)
	mv	a5,a4
	slli	a5,a5,1
	add	a5,a5,a4
	slli	a5,a5,6
	mv	a4,a5
	.loc 1 390 5 discriminator 3
	lw	a5,12(sp)
	add	a3,a5,a4
	lw	a5,28(sp)
	slli	a5,a5,10
	lw	a4,8(sp)
	add	a5,a4,a5
	mv	a1,a5
	mv	a0,a3
	call	pqcrystals_dilithium2_ref_polyw1_pack
	.loc 1 389 21 discriminator 3
	lw	a5,28(sp)
	addi	a5,a5,1
	sw	a5,28(sp)
.L84:
	.loc 1 389 3 discriminator 1
	lw	a4,28(sp)
	li	a5,3
	bleu	a4,a5,.L85
	.loc 1 391 1
	nop
	nop
	lw	ra,44(sp)
	.cfi_restore 1
	addi	sp,sp,48
	.cfi_def_cfa_offset 0
	jr	ra
	.cfi_endproc
.LFE25:
	.size	pqcrystals_dilithium2_ref_polyveck_pack_w1, .-pqcrystals_dilithium2_ref_polyveck_pack_w1
.Letext0:
	.file 2 "include/stdint.h"
	.file 3 "test_demo/poly.h"
	.file 4 "test_demo/polyvec.h"